(dp1
S'OriginalConfig'
p2
ccopy_reg
_reconstructor
p3
(cWMCore.Configuration
Configuration
p4
c__builtin__
object
p5
NtRp6
(dp7
S'Site'
p8
g3
(cWMCore.Configuration
ConfigSection
p9
g5
NtRp10
(dp11
S'_internal_skipChecks'
p12
I00
sS'_internal_documentation'
p13
S''
sS'_internal_settings'
p14
c__builtin__
set
p15
((lp16
S'storageSite'
p17
atRp18
sS'_internal_name'
p19
g8
sS'_internal_docstrings'
p20
(dp21
sS'_internal_children'
p22
g15
((ltRp23
sg17
S'T2_FI_HIP'
p24
sS'_internal_parent_ref'
p25
NsbsS'_internal_sections'
p26
(lp27
S'General'
p28
aS'JobType'
p29
aS'Data'
p30
ag8
asg28
g3
(g9
g5
NtRp31
(dp32
g12
I00
sg13
S''
sg14
g15
((lp33
S'transferOutputs'
p34
aS'requestName'
p35
atRp36
sg19
g28
sg20
(dp37
sg34
I01
sg22
g15
((ltRp38
sg35
S'generate_K0S_20k'
p39
sg25
NsbsS'_internal_webapps'
p40
(lp41
sS'_internal_components'
p42
(lp43
sg30
g3
(g9
g5
NtRp44
(dp45
S'publishDBS'
p46
S'https://cmsweb.cern.ch/dbs/prod/phys03/DBSWriter/'
p47
sS'outputDatasetTag'
p48
g39
sS'outputPrimaryDataset'
p49
S'SingleK0S'
p50
sg12
I00
sS'unitsPerJob'
p51
I1000
sg13
S''
sg14
g15
((lp52
g48
ag46
aS'publication'
p53
ag51
aS'splitting'
p54
aS'outLFNDirBase'
p55
ag49
aS'totalUnits'
p56
atRp57
sg19
g30
sg54
S'EventBased'
p58
sg20
(dp59
sg22
g15
((ltRp60
sg53
I01
sg55
S'/store/user/mmyllyma/CRAB3_TransferData'
p61
sg25
Nsg56
I20000
sbsg29
g3
(g9
g5
NtRp62
(dp63
S'outputFiles'
p64
(lp65
S'step1_K0S_20k.root'
p66
asg12
I00
sg13
S''
sg14
g15
((lp67
S'psetName'
p68
aS'pluginName'
p69
ag64
aS'allowUndistributedCMSSW'
p70
aS'eventsPerLumi'
p71
atRp72
sg19
g29
sg20
(dp73
sg69
S'PrivateMC'
p74
sg22
g15
((ltRp75
sg70
I01
sg68
S'generate_K0S_20k.py'
p76
sg25
Nsg71
I500
sbsbsS'voGroup'
p77
S''
sS'Server'
p78
S'cmsweb-k8s-prod.cern.ch'
p79
sS'instance'
p80
S'prod'
p81
sS'RequestName'
p82
V210206_014744:mmyllyma_crab_generate_K0S_20k
p83
sS'voRole'
p84
S'NULL'
p85
sS'Port'
p86
S''
s.