(dp1
S'OriginalConfig'
p2
ccopy_reg
_reconstructor
p3
(cWMCore.Configuration
Configuration
p4
c__builtin__
object
p5
NtRp6
(dp7
S'Site'
p8
g3
(cWMCore.Configuration
ConfigSection
p9
g5
NtRp10
(dp11
S'_internal_skipChecks'
p12
I00
sS'_internal_documentation'
p13
S''
sS'_internal_settings'
p14
c__builtin__
set
p15
((lp16
S'whitelist'
p17
aS'storageSite'
p18
atRp19
sS'_internal_name'
p20
g8
sS'_internal_docstrings'
p21
(dp22
sS'_internal_children'
p23
g15
((ltRp24
sg18
S'T2_FI_HIP'
p25
sS'_internal_parent_ref'
p26
Nsg17
(lp27
S'T2_FI*'
p28
aS'T2_CH*'
p29
aS'T2_US*'
p30
asbsS'_internal_sections'
p31
(lp32
S'General'
p33
aS'JobType'
p34
aS'Data'
p35
ag8
asg33
g3
(g9
g5
NtRp36
(dp37
g12
I00
sg13
S''
sg14
g15
((lp38
S'transferOutputs'
p39
aS'requestName'
p40
atRp41
sg20
g33
sg21
(dp42
sg39
I01
sg23
g15
((ltRp43
sg40
S'step2_K0L_1M'
p44
sg26
NsbsS'_internal_webapps'
p45
(lp46
sS'_internal_components'
p47
(lp48
sg35
g3
(g9
g5
NtRp49
(dp50
S'inputDataset'
p51
S'/SingleK0L/mmyllyma-generate_K0L_1M-bc7f99e6da8174c019580527ac7fb82b/USER'
p52
sS'outputDatasetTag'
p53
g44
sS'publishDBS'
p54
S'https://cmsweb.cern.ch/dbs/prod/phys03/DBSWriter/'
p55
sg12
I00
sS'splitting'
p56
S'FileBased'
p57
sS'unitsPerJob'
p58
I10
sg13
S''
sg14
g15
((lp59
g51
ag53
ag54
aS'totalUnits'
p60
ag58
aS'inputDBS'
p61
ag56
aS'outLFNDirBase'
p62
aS'publication'
p63
atRp64
sg20
g35
sg61
S'phys03'
p65
sg21
(dp66
sg23
g15
((ltRp67
sg63
I01
sg62
S'/store/user/mmyllyma/CRAB3_TransferData'
p68
sg26
Nsg60
I1000
sbsg34
g3
(g9
g5
NtRp69
(dp70
S'outputFiles'
p71
(lp72
S'step2_K0L_1M.root'
p73
asg12
I00
sg13
S''
sg14
g15
((lp74
S'psetName'
p75
aS'pluginName'
p76
ag71
aS'allowUndistributedCMSSW'
p77
aS'maxMemoryMB'
p78
atRp79
sg20
g34
sg21
(dp80
sg76
S'Analysis'
p81
sg23
g15
((ltRp82
sg77
I01
sg75
S'step2_K0L_1M.py'
p83
sg26
Nsg78
I2500
sbsbsS'voGroup'
p84
S''
sS'Server'
p85
S'cmsweb-k8s-prod.cern.ch'
p86
sS'instance'
p87
S'prod'
p88
sS'RequestName'
p89
V210112_164116:mmyllyma_crab_step2_K0L_1M
p90
sS'voRole'
p91
S'NULL'
p92
sS'Port'
p93
S''
s.