(dp1
S'OriginalConfig'
p2
ccopy_reg
_reconstructor
p3
(cWMCore.Configuration
Configuration
p4
c__builtin__
object
p5
NtRp6
(dp7
S'Site'
p8
g3
(cWMCore.Configuration
ConfigSection
p9
g5
NtRp10
(dp11
S'_internal_skipChecks'
p12
I00
sS'_internal_documentation'
p13
S''
sS'_internal_settings'
p14
c__builtin__
set
p15
((lp16
S'storageSite'
p17
atRp18
sS'_internal_name'
p19
g8
sS'_internal_docstrings'
p20
(dp21
sS'_internal_children'
p22
g15
((ltRp23
sg17
S'T2_FI_HIP'
p24
sS'_internal_parent_ref'
p25
NsbsS'_internal_sections'
p26
(lp27
S'General'
p28
aS'JobType'
p29
aS'Data'
p30
ag8
asg28
g3
(g9
g5
NtRp31
(dp32
g12
I00
sg13
S''
sg14
g15
((lp33
S'transferOutputs'
p34
aS'requestName'
p35
atRp36
sg19
g28
sg20
(dp37
sg34
I01
sg22
g15
((ltRp38
sg35
S'myAnalysis_gamma_20k'
p39
sg25
NsbsS'_internal_webapps'
p40
(lp41
sS'_internal_components'
p42
(lp43
sg30
g3
(g9
g5
NtRp44
(dp45
S'inputDataset'
p46
S'/SingleGamma/mmyllyma-step3_gamma_20k-d50b77769ed38983f48189deb3e4f4d3/USER'
p47
sg12
I00
sS'splitting'
p48
S'FileBased'
p49
sS'unitsPerJob'
p50
I1
sg13
S''
sg14
g15
((lp51
g46
aS'totalUnits'
p52
ag50
aS'inputDBS'
p53
ag48
aS'outLFNDirBase'
p54
atRp55
sg19
g30
sg53
S'phys03'
p56
sg20
(dp57
sg22
g15
((ltRp58
sg54
S'/store/user/mmyllyma/CRAB3_TransferData'
p59
sg25
Nsg52
I20
sbsg29
g3
(g9
g5
NtRp60
(dp61
S'outputFiles'
p62
(lp63
S'step99_gamma_20k_trees.root'
p64
asg12
I00
sg13
S''
sg14
g15
((lp65
S'psetName'
p66
aS'pluginName'
p67
ag62
aS'allowUndistributedCMSSW'
p68
aS'maxMemoryMB'
p69
atRp70
sg19
g29
sg20
(dp71
sg67
S'Analysis'
p72
sg22
g15
((ltRp73
sg68
I01
sg66
S'myAnalysis_gamma_20k.py'
p74
sg25
Nsg69
I2500
sbsbsS'voGroup'
p75
S''
sS'Server'
p76
S'cmsweb-k8s-prod.cern.ch'
p77
sS'instance'
p78
S'prod'
p79
sS'RequestName'
p80
V210204_230507:mmyllyma_crab_myAnalysis_gamma_20k
p81
sS'voRole'
p82
S'NULL'
p83
sS'Port'
p84
S''
s.