ccopy_reg
_reconstructor
p0
(cFWCore.ParameterSet.Config
Process
p1
c__builtin__
object
p2
Ntp3
Rp4
(dp5
S'MessageLogger'
p6
g0
(cFWCore.ParameterSet.Modules
Service
p7
g2
Ntp8
Rp9
(dp10
S'_isFrozen'
p11
I00
sS'suppressInfo'
p12
g0
(cFWCore.ParameterSet.Types
vstring
p13
c__builtin__
list
p14
(lp15
tp16
Rp17
(dp18
g11
I00
sS'_ParameterTypeBase__isTracked'
p19
I00
sS'_isModified'
p20
I00
sS'_nPerLine'
p21
I1
sbsS'suppressDebug'
p22
g0
(g13
g14
(lp23
tp24
Rp25
(dp26
g11
I00
sg19
I00
sg20
I00
sg21
I1
sbsS'cout'
p27
g0
(cFWCore.ParameterSet.Types
PSet
p28
g2
Ntp29
Rp30
(dp31
g11
I00
sg19
I00
sS'placeholder'
p32
g0
(cFWCore.ParameterSet.Types
bool
p33
g2
Ntp34
Rp35
(dp36
g11
I00
sg19
I00
sS'_value'
p37
I01
sg20
I00
sbsg20
I00
sS'_Parameterizable__parameterNames'
p38
(lp39
g32
asbsS'_lineNumber'
p40
I11
sS'debugModules'
p41
g0
(g13
g14
(lp42
tp43
Rp44
(dp45
g11
I00
sg19
I00
sg20
I00
sg21
I1
sbsS'_TypedParameterizable__type'
p46
g6
sS'fwkJobReports'
p47
g0
(g13
g14
(lp48
S'FrameworkJobReport'
p49
atp50
Rp51
(dp52
g11
I00
sg19
I00
sg20
I00
sg21
I1
sbsg38
(lp53
g12
aS'debugs'
p54
ag22
ag27
aS'cerr_stats'
p55
aS'warnings'
p56
aS'default'
p57
aS'statistics'
p58
aS'cerr'
p59
ag49
aS'suppressWarning'
p60
aS'errors'
p61
aS'destinations'
p62
ag41
aS'infos'
p63
aS'categories'
p64
ag47
asg58
g0
(g13
g14
(lp65
g55
atp66
Rp67
(dp68
g11
I00
sg19
I00
sg20
I00
sg21
I1
sbsS'_filename'
p69
S'/cvmfs/cms.cern.ch/slc7_amd64_gcc700/cms/cmssw/CMSSW_10_4_0/python/FWCore/ParameterSet/Modules.py'
p70
sg62
g0
(g13
g14
(lp71
g56
ag61
ag63
ag54
ag27
ag59
atp72
Rp73
(dp74
g11
I00
sg19
I00
sg20
I00
sg21
I1
sbsg54
g0
(g28
g2
Ntp75
Rp76
(dp77
g11
I00
sg19
I00
sg32
g0
(g33
g2
Ntp78
Rp79
(dp80
g11
I00
sg19
I00
sg37
I01
sg20
I00
sbsg20
I00
sg38
(lp81
g32
asbsg56
g0
(g28
g2
Ntp82
Rp83
(dp84
g11
I00
sg19
I00
sg32
g0
(g33
g2
Ntp85
Rp86
(dp87
g11
I00
sg19
I00
sg37
I01
sg20
I00
sbsg20
I00
sg38
(lp88
g32
asbsg61
g0
(g28
g2
Ntp89
Rp90
(dp91
g11
I00
sg19
I00
sg32
g0
(g33
g2
Ntp92
Rp93
(dp94
g11
I00
sg19
I00
sg37
I01
sg20
I00
sbsg20
I00
sg38
(lp95
g32
asbsg49
g0
(g28
g2
Ntp96
Rp97
(dp98
g11
I00
sg19
I00
sg20
I00
sg57
g0
(g28
g2
Ntp99
Rp100
(dp101
g11
I00
sg19
I00
sS'limit'
p102
g0
(cFWCore.ParameterSet.Types
int32
p103
g2
Ntp104
Rp105
(dp106
g11
I00
sg19
I00
sg37
I0
sg20
I00
sbsg20
I00
sg38
(lp107
g102
asbsS'FwkJob'
p108
g0
(g28
g2
Ntp109
Rp110
(dp111
g11
I00
sg19
I00
sg20
I00
sg102
g0
(g103
g2
Ntp112
Rp113
(dp114
g11
I00
sg19
I00
sg37
I10000000
sg20
I00
sbsg38
(lp115
S'optionalPSet'
p116
ag102
asg116
g0
(g33
g2
Ntp117
Rp118
(dp119
g11
I00
sg19
I00
sg37
I01
sg20
I00
sbsbsg38
(lp120
g57
ag116
ag108
asg116
g0
(g33
g2
Ntp121
Rp122
(dp123
g11
I00
sg19
I00
sg37
I01
sg20
I00
sbsbsg60
g0
(g13
g14
(lp124
tp125
Rp126
(dp127
g11
I00
sg19
I00
sg20
I00
sg21
I1
sbsg63
g0
(g28
g2
Ntp128
Rp129
(dp130
g11
I00
sg19
I00
sg20
I00
sS'Root_NoDictionary'
p131
g0
(g28
g2
Ntp132
Rp133
(dp134
g11
I00
sg19
I00
sg20
I00
sg102
g0
(g103
g2
Ntp135
Rp136
(dp137
g11
I00
sg19
I00
sg37
I0
sg20
I00
sbsg38
(lp138
g116
ag102
asg116
g0
(g33
g2
Ntp139
Rp140
(dp141
g11
I00
sg19
I00
sg37
I01
sg20
I00
sbsbsg38
(lp142
g116
ag131
ag32
asg116
g0
(g33
g2
Ntp143
Rp144
(dp145
g11
I00
sg19
I00
sg37
I01
sg20
I00
sbsg32
g0
(g33
g2
Ntp146
Rp147
(dp148
g11
I00
sg19
I00
sg37
I01
sg20
I00
sbsbsg64
g0
(g13
g14
(lp149
g108
aS'FwkReport'
p150
aS'FwkSummary'
p151
ag131
atp152
Rp153
(dp154
g11
I00
sg19
I00
sg20
I00
sg21
I1
sbsg20
I00
sg55
g0
(g28
g2
Ntp155
Rp156
(dp157
g11
I00
sg19
I00
sg20
I00
sg116
g0
(g33
g2
Ntp158
Rp159
(dp160
g11
I00
sg19
I00
sg37
I01
sg20
I00
sbsg38
(lp161
S'threshold'
p162
aS'output'
p163
ag116
asg162
g0
(cFWCore.ParameterSet.Types
string
p164
g2
Ntp165
Rp166
(dp167
g11
I00
sg19
I00
sg37
S'WARNING'
p168
sg20
I00
sbsg163
g0
(g164
g2
Ntp169
Rp170
(dp171
g11
I00
sg19
I00
sg37
g59
sg20
I00
sbsbsg57
g0
(g28
g2
Ntp172
Rp173
(dp174
g11
I00
sg19
I00
sg20
I00
sg38
(lp175
sbsS'_inProcess'
p176
I01
sg59
g0
(g28
g2
Ntp177
Rp178
(dp179
g11
I00
sg19
I00
sS'noTimeStamps'
p180
g0
(g33
g2
Ntp181
Rp182
(dp183
g11
I00
sg19
I00
sg37
I00
sg20
I00
sbsg150
g0
(g28
g2
Ntp184
Rp185
(dp186
g11
I00
sg19
I00
sg20
I00
sS'reportEvery'
p187
g0
(g103
g2
Ntp188
Rp189
(dp190
g11
I00
sg19
I00
sg37
I1
sg20
I00
sbsg102
g0
(g103
g2
Ntp191
Rp192
(dp193
g11
I00
sg19
I00
sg37
I10000000
sg20
I00
sbsg38
(lp194
g187
ag116
ag102
asg116
g0
(g33
g2
Ntp195
Rp196
(dp197
g11
I00
sg19
I00
sg37
I01
sg20
I00
sbsbsg20
I00
sg57
g0
(g28
g2
Ntp198
Rp199
(dp200
g11
I00
sg19
I00
sg102
g0
(g103
g2
Ntp201
Rp202
(dp203
g11
I00
sg19
I00
sg37
I10000000
sg20
I00
sbsg20
I00
sg38
(lp204
g102
asbsg131
g0
(g28
g2
Ntp205
Rp206
(dp207
g11
I00
sg19
I00
sg20
I00
sg102
g0
(g103
g2
Ntp208
Rp209
(dp210
g11
I00
sg19
I00
sg37
I0
sg20
I00
sbsg38
(lp211
g116
ag102
asg116
g0
(g33
g2
Ntp212
Rp213
(dp214
g11
I00
sg19
I00
sg37
I01
sg20
I00
sbsbsS'INFO'
p215
g0
(g28
g2
Ntp216
Rp217
(dp218
g11
I00
sg19
I00
sg102
g0
(g103
g2
Ntp219
Rp220
(dp221
g11
I00
sg19
I00
sg37
I0
sg20
I00
sbsg20
I00
sg38
(lp222
g102
asbsg116
g0
(g33
g2
Ntp223
Rp224
(dp225
g11
I00
sg19
I00
sg37
I01
sg20
I00
sbsg108
g0
(g28
g2
Ntp226
Rp227
(dp228
g11
I00
sg19
I00
sg20
I00
sg102
g0
(g103
g2
Ntp229
Rp230
(dp231
g11
I00
sg19
I00
sg37
I0
sg20
I00
sbsg38
(lp232
g116
ag102
asg116
g0
(g33
g2
Ntp233
Rp234
(dp235
g11
I00
sg19
I00
sg37
I01
sg20
I00
sbsbsg151
g0
(g28
g2
Ntp236
Rp237
(dp238
g11
I00
sg19
I00
sg20
I00
sg187
g0
(g103
g2
Ntp239
Rp240
(dp241
g11
I00
sg19
I00
sg37
I1
sg20
I00
sbsg102
g0
(g103
g2
Ntp242
Rp243
(dp244
g11
I00
sg19
I00
sg37
I10000000
sg20
I00
sbsg38
(lp245
g187
ag116
ag102
asg116
g0
(g33
g2
Ntp246
Rp247
(dp248
g11
I00
sg19
I00
sg37
I01
sg20
I00
sbsbsg38
(lp249
g215
ag180
ag150
ag57
ag131
ag162
ag108
ag151
ag116
asg162
g0
(g164
g2
Ntp250
Rp251
(dp252
g11
I00
sg19
I00
sg37
g215
sg20
I00
sbsbsbsS'CaloGeometryBuilder'
p253
g0
(cFWCore.ParameterSet.Modules
ESProducer
p254
g2
Ntp255
Rp256
(dp257
g38
(lp258
S'SelectedCalos'
p259
asg11
I00
sg20
I00
sg40
I53
sg69
g70
sg259
g0
(g13
g14
(lp260
S'HCAL'
p261
aS'ZDC'
p262
aS'CASTOR'
p263
aS'EcalBarrel'
p264
aS'EcalEndcap'
p265
aS'EcalPreshower'
p266
aS'TOWER'
p267
atp268
Rp269
(dp270
g11
I00
sg19
I01
sg20
I00
sg21
I1
sbsS'_Labelable__label'
p271
g253
sg46
g253
sbsS'_Process__sequences'
p272
(dp273
S'genReReco'
p274
g0
(cFWCore.ParameterSet.SequenceTypes
Sequence
p275
g2
Ntp276
Rp277
(dp278
g11
I00
sS'_seq'
p279
g0
(cFWCore.ParameterSet.SequenceTypes
_SequenceCollection
p280
g2
Ntp281
Rp282
(dp283
S'_collection'
p284
(lp285
g0
(cFWCore.ParameterSet.Modules
EDProducer
p286
g2
Ntp287
Rp288
(dp289
g38
(lp290
S'fastSimProducer'
p291
aS'MCTruthMatchingInfo'
p292
aS'RecTracks'
p293
aS'Fitter'
p294
aS'ecalRecHitsEE'
p295
aS'ecalRecHitsEB'
p296
aS'process_RecTracks'
p297
aS'ParticleFilter'
p298
aS'TTRHBuilder'
p299
aS'process_Particles'
p300
aS'Propagator'
p301
aS'sim'
p302
aS'verbose'
p303
asg11
I00
sg291
g0
(cFWCore.ParameterSet.Types
InputTag
p304
g2
Ntp305
Rp306
(dp307
g11
I00
sg19
I00
sg20
I00
sS'_InputTag__moduleLabel'
p308
g291
sS'_InputTag__processName'
p309
S''
p310
sS'_InputTag__productInstance'
p311
S'EcalHitsEB'
p312
sbsg303
g0
(g33
g2
Ntp313
Rp314
(dp315
g11
I00
sg19
I00
sg37
I00
sg20
I00
sbsg20
I01
sg293
g0
(g304
g2
Ntp316
Rp317
(dp318
g11
I00
sg19
I01
sg20
I00
sg308
S'trackerDrivenElectronSeeds'
p319
sg309
g310
sg311
g310
sbsg294
g0
(g164
g2
Ntp320
Rp321
(dp322
g11
I00
sg19
I01
sg37
S'KFFittingSmoother'
p323
sg20
I00
sbsg69
S'/cvmfs/cms.cern.ch/slc7_amd64_gcc700/cms/cmssw/CMSSW_10_4_0/python/RecoParticleFlow/PFProducer/particleFlowSimParticle_cfi.py'
p324
sg295
g0
(g304
g2
Ntp325
Rp326
(dp327
g11
I00
sg19
I01
sg20
I00
sg308
S'caloRecHits'
p328
sg309
g310
sg311
S'EcalRecHitsEE'
p329
sbsg296
g0
(g304
g2
Ntp330
Rp331
(dp332
g11
I00
sg19
I01
sg20
I00
sg308
g328
sg309
g310
sg311
S'EcalRecHitsEB'
p333
sbsg297
g0
(g33
g2
Ntp334
Rp335
(dp336
g11
I00
sg19
I00
sg37
I00
sg20
I00
sbsg298
g0
(g28
g2
Ntp337
Rp338
(dp339
g11
I00
sg19
I01
sS'zMax'
p340
g0
(cFWCore.ParameterSet.Types
double
p341
g2
Ntp342
Rp343
(dp344
g11
I00
sg19
I01
sg37
F317.0
sg20
I00
sbsg20
I01
sS'EMin'
p345
g0
(g341
g2
Ntp346
Rp347
(dp348
g11
I00
sg19
I01
sg37
F0.0
sg20
I00
sbsS'invisibleParticles'
p349
g0
(cFWCore.ParameterSet.Types
vint32
p350
g14
(lp351
tp352
Rp353
(dp354
g11
I00
sg19
I01
sg20
I00
sbsS'rMax'
p355
g0
(g341
g2
Ntp356
Rp357
(dp358
g11
I00
sg19
I01
sg37
F129.0
sg20
I00
sbsS'protonEMin'
p359
g0
(g341
g2
Ntp360
Rp361
(dp362
g11
I00
sg19
I01
sg37
F5000.0
sg20
I00
sbsg38
(lp363
g340
ag345
ag349
ag355
ag359
aS'chargedPtMin'
p364
aS'etaMax'
p365
asg364
g0
(g341
g2
Ntp366
Rp367
(dp368
g11
I00
sg19
I01
sg37
F0.0
sg20
I00
sbsg365
g0
(g341
g2
Ntp369
Rp370
(dp371
g11
I00
sg19
I01
sg37
F5.3
sg20
I00
sbsbsg40
I36
sg299
g0
(g164
g2
Ntp372
Rp373
(dp374
g11
I00
sg19
I01
sg37
S'WithTrackAngle'
p375
sg20
I00
sbsg302
g0
(g304
g2
Ntp376
Rp377
(dp378
g11
I00
sg19
I01
sg20
I00
sg308
S'g4SimHits'
p379
sg309
g310
sg311
g310
sbsg271
S'particleFlowSimParticle'
p380
sg300
g0
(g33
g2
Ntp381
Rp382
(dp383
g11
I00
sg19
I00
sg37
I01
sg20
I00
sbsg301
g0
(g164
g2
Ntp384
Rp385
(dp386
g11
I00
sg19
I01
sg37
S'PropagatorWithMaterial'
p387
sg20
I00
sbsg46
S'PFSimParticleProducer'
p388
sg292
g0
(g33
g2
Ntp389
Rp390
(dp391
g11
I00
sg19
I00
sg37
I00
sg20
I00
sbsbasbsg271
g274
sg20
I00
sS'_tasks'
p392
g0
(cFWCore.ParameterSet.OrderedSet
OrderedSet
p393
g2
Ntp394
Rp395
(dp396
S'map'
p397
(dp398
sS'end'
p399
(lp400
Nag400
ag400
asbsbssS'siStripBackPlaneCorrectionDepESProducer'
p401
g0
(g254
g2
Ntp402
Rp403
(dp404
g38
(lp405
S'LatencyRecord'
p406
aS'BackPlaneCorrectionDeconvMode'
p407
aS'BackPlaneCorrectionPeakMode'
p408
asg11
I00
sg20
I00
sg40
I53
sg69
g70
sg406
g0
(g28
g2
Ntp409
Rp410
(dp411
g11
I00
sg19
I01
sg20
I00
sS'label'
p412
g0
(g164
g2
Ntp413
Rp414
(dp415
g11
I00
sg19
I00
sg37
g310
sg20
I00
sbsS'record'
p416
g0
(g164
g2
Ntp417
Rp418
(dp419
g11
I00
sg19
I01
sg37
S'SiStripLatencyRcd'
p420
sg20
I00
sbsg38
(lp421
g416
ag412
asbsg408
g0
(g28
g2
Ntp422
Rp423
(dp424
g11
I00
sg19
I01
sg20
I00
sg412
g0
(g164
g2
Ntp425
Rp426
(dp427
g11
I00
sg19
I00
sg37
S'peak'
p428
sg20
I00
sbsg416
g0
(g164
g2
Ntp429
Rp430
(dp431
g11
I00
sg19
I01
sg37
S'SiStripBackPlaneCorrectionRcd'
p432
sg20
I00
sbsg38
(lp433
g416
ag412
asbsg271
g401
sg407
g0
(g28
g2
Ntp434
Rp435
(dp436
g11
I00
sg19
I01
sg20
I00
sg412
g0
(g164
g2
Ntp437
Rp438
(dp439
g11
I00
sg19
I00
sg37
S'deconvolution'
p440
sg20
I00
sbsg416
g0
(g164
g2
Ntp441
Rp442
(dp443
g11
I00
sg19
I01
sg37
g432
sg20
I00
sbsg38
(lp444
g416
ag412
asbsg46
S'SiStripBackPlaneCorrectionDepESProducer'
p445
sbsS'PoolSource'
p446
g0
(cFWCore.ParameterSet.Modules
Source
p447
g2
Ntp448
Rp449
(dp450
g38
(lp451
S'secondaryFileNames'
p452
aS'fileNames'
p453
asg11
I00
sg20
I00
sg40
I193
sg69
g70
sg453
g0
(g13
g14
(lp454
S'file:step3_pi_100k.root'
p455
atp456
Rp457
(dp458
g11
I00
sg19
I00
sg20
I00
sg21
I1
sbsg46
g446
sg452
g0
(g13
g14
(lp459
tp460
Rp461
(dp462
g11
I00
sg19
I00
sg20
I00
sg21
I1
sbsbsS'_Process__services'
p463
(dp464
g6
g9
ssS'siStripQualityESProducer'
p465
g0
(g254
g2
Ntp466
Rp467
(dp468
g38
(lp469
S'appendToDataLabel'
p470
aS'PrintDebugOutput'
p471
aS'ThresholdForReducedGranularity'
p472
aS'UseEmptyRunInfo'
p473
aS'ReduceGranularity'
p474
aS'ListOfRecordToMerge'
p475
asg11
I00
sg470
g0
(g164
g2
Ntp476
Rp477
(dp478
g11
I00
sg19
I01
sg37
g310
sg20
I00
sbsg20
I01
sg40
I53
sg69
g70
sg472
g0
(g341
g2
Ntp479
Rp480
(dp481
g11
I00
sg19
I01
sg37
F0.3
sg20
I00
sbsg271
g465
sg473
g0
(g33
g2
Ntp482
Rp483
(dp484
g11
I00
sg19
I01
sg37
I00
sg20
I00
sbsg474
g0
(g33
g2
Ntp485
Rp486
(dp487
g11
I00
sg19
I01
sg37
I00
sg20
I00
sbsg475
g0
(cFWCore.ParameterSet.Types
VPSet
p488
g14
(lp489
g0
(g28
g2
Ntp490
Rp491
(dp492
g11
I00
sg19
I01
sg20
I00
sg416
g0
(g164
g2
Ntp493
Rp494
(dp495
g11
I00
sg19
I01
sg37
S'SiStripDetVOffRcd'
p496
sg20
I00
sbsS'tag'
p497
g0
(g164
g2
Ntp498
Rp499
(dp500
g11
I00
sg19
I01
sg37
g310
sg20
I00
sbsg38
(lp501
g416
ag497
asbag0
(g28
g2
Ntp502
Rp503
(dp504
g11
I00
sg19
I01
sg20
I00
sg416
g0
(g164
g2
Ntp505
Rp506
(dp507
g11
I00
sg19
I01
sg37
S'SiStripDetCablingRcd'
p508
sg20
I00
sbsg497
g0
(g164
g2
Ntp509
Rp510
(dp511
g11
I00
sg19
I01
sg37
g310
sg20
I00
sbsg38
(lp512
g416
ag497
asbag0
(g28
g2
Ntp513
Rp514
(dp515
g11
I00
sg19
I01
sg20
I00
sg416
g0
(g164
g2
Ntp516
Rp517
(dp518
g11
I00
sg19
I01
sg37
S'RunInfoRcd'
p519
sg20
I00
sbsg497
g0
(g164
g2
Ntp520
Rp521
(dp522
g11
I00
sg19
I01
sg37
g310
sg20
I00
sbsg38
(lp523
g416
ag497
asbag0
(g28
g2
Ntp524
Rp525
(dp526
g11
I00
sg19
I01
sg20
I00
sg416
g0
(g164
g2
Ntp527
Rp528
(dp529
g11
I00
sg19
I01
sg37
S'SiStripBadChannelRcd'
p530
sg20
I00
sbsg497
g0
(g164
g2
Ntp531
Rp532
(dp533
g11
I00
sg19
I01
sg37
g310
sg20
I00
sbsg38
(lp534
g416
ag497
asbag0
(g28
g2
Ntp535
Rp536
(dp537
g11
I00
sg19
I01
sg20
I00
sg416
g0
(g164
g2
Ntp538
Rp539
(dp540
g11
I00
sg19
I01
sg37
S'SiStripBadFiberRcd'
p541
sg20
I00
sbsg497
g0
(g164
g2
Ntp542
Rp543
(dp544
g11
I00
sg19
I01
sg37
g310
sg20
I00
sbsg38
(lp545
g416
ag497
asbag0
(g28
g2
Ntp546
Rp547
(dp548
g11
I00
sg19
I01
sg20
I00
sg416
g0
(g164
g2
Ntp549
Rp550
(dp551
g11
I00
sg19
I01
sg37
S'SiStripBadModuleRcd'
p552
sg20
I00
sbsg497
g0
(g164
g2
Ntp553
Rp554
(dp555
g11
I00
sg19
I01
sg37
g310
sg20
I00
sbsg38
(lp556
g416
ag497
asbag0
(g28
g2
Ntp557
Rp558
(dp559
g11
I00
sg19
I01
sg20
I00
sg416
g0
(g164
g2
Ntp560
Rp561
(dp562
g11
I00
sg19
I01
sg37
S'SiStripBadStripRcd'
p563
sg20
I00
sbsg497
g0
(g164
g2
Ntp564
Rp565
(dp566
g11
I00
sg19
I01
sg37
g310
sg20
I00
sbsg38
(lp567
g416
ag497
asbatp568
Rp569
(dp570
g11
I00
sg19
I01
sg20
I00
sg21
I1
sbsg46
S'SiStripQualityESProducer'
p571
sg471
g0
(g33
g2
Ntp572
Rp573
(dp574
g11
I00
sg19
I01
sg37
I00
sg20
I00
sbsbsS'EcalLaserCorrectionService'
p575
g0
(g254
g2
Ntp576
Rp577
(dp578
g38
(lp579
sg11
I00
sg20
I00
sg40
I53
sg69
g70
sg271
g575
sg46
g575
sbsS'DTGeometryESModule'
p580
g0
(g254
g2
Ntp581
Rp582
(dp583
g38
(lp584
g470
aS'fromDDD'
p585
aS'applyAlignment'
p586
aS'alignmentsLabel'
p587
asg11
I00
sg470
g0
(g164
g2
Ntp588
Rp589
(dp590
g11
I00
sg19
I01
sg37
g310
sg20
I00
sbsg20
I00
sg587
g0
(g164
g2
Ntp591
Rp592
(dp593
g11
I00
sg19
I01
sg37
g310
sg20
I00
sbsg69
g70
sg40
I53
sg271
g580
sg585
g0
(g33
g2
Ntp594
Rp595
(dp596
g11
I00
sg19
I01
sg37
I00
sg20
I00
sbsg586
g0
(g33
g2
Ntp597
Rp598
(dp599
g11
I00
sg19
I01
sg37
I01
sg20
I00
sbsg46
g580
sbsS'_Process__source'
p600
g449
sS'StripCPEfromTrackAngleESProducer'
p601
g0
(g254
g2
Ntp602
Rp603
(dp604
g38
(lp605
S'ComponentType'
p606
aS'ComponentName'
p607
aS'parameters'
p608
asg11
I00
sg20
I01
sg608
g0
(g28
g2
Ntp609
Rp610
(dp611
g11
I00
sg19
I01
sS'maxChgOneMIP'
p612
g0
(g341
g2
Ntp613
Rp614
(dp615
g11
I00
sg19
I01
sg37
F6000.0
sg20
I00
sbsS'mLC_P2'
p616
g0
(g341
g2
Ntp617
Rp618
(dp619
g11
I00
sg19
I01
sg37
F0.3
sg20
I00
sbsS'mLC_P1'
p620
g0
(g341
g2
Ntp621
Rp622
(dp623
g11
I00
sg19
I01
sg37
F0.618
sg20
I00
sbsS'mLC_P0'
p624
g0
(g341
g2
Ntp625
Rp626
(dp627
g11
I00
sg19
I01
sg37
F-0.326
sg20
I00
sbsS'useLegacyError'
p628
g0
(g33
g2
Ntp629
Rp630
(dp631
g11
I00
sg19
I01
sg37
I00
sg20
I00
sbsS'mTIB_P1'
p632
g0
(g341
g2
Ntp633
Rp634
(dp635
g11
I00
sg19
I01
sg37
F0.202
sg20
I00
sbsS'mTEC_P1'
p636
g0
(g341
g2
Ntp637
Rp638
(dp639
g11
I00
sg19
I01
sg37
F0.471
sg20
I00
sbsS'mTEC_P0'
p640
g0
(g341
g2
Ntp641
Rp642
(dp643
g11
I00
sg19
I01
sg37
F-1.885
sg20
I00
sbsS'mTOB_P0'
p644
g0
(g341
g2
Ntp645
Rp646
(dp647
g11
I00
sg19
I01
sg37
F-1.026
sg20
I00
sbsS'mTOB_P1'
p648
g0
(g341
g2
Ntp649
Rp650
(dp651
g11
I00
sg19
I01
sg37
F0.253
sg20
I00
sbsS'mTIB_P0'
p652
g0
(g341
g2
Ntp653
Rp654
(dp655
g11
I00
sg19
I01
sg37
F-0.742
sg20
I00
sbsg38
(lp656
g612
ag616
ag620
ag624
ag628
ag636
ag640
ag644
ag648
ag652
ag632
aS'mTID_P0'
p657
aS'mTID_P1'
p658
asg657
g0
(g341
g2
Ntp659
Rp660
(dp661
g11
I00
sg19
I01
sg37
F-1.427
sg20
I00
sbsg658
g0
(g341
g2
Ntp662
Rp663
(dp664
g11
I00
sg19
I01
sg37
F0.433
sg20
I00
sbsg20
I00
sbsg40
I4
sg607
g0
(g164
g2
Ntp665
Rp666
(dp667
g11
I00
sg19
I01
sg37
S'StripCPEfromTrackAngle'
p668
sg20
I00
sbsg606
g0
(g164
g2
Ntp669
Rp670
(dp671
g11
I00
sg19
I01
sg37
g668
sg20
I00
sbsg69
S'/cvmfs/cms.cern.ch/slc7_amd64_gcc700/cms/cmssw/CMSSW_10_4_0/python/RecoLocalTracker/SiStripRecHitConverter/StripCPEfromTrackAngle_cfi.py'
p672
sg271
g601
sg46
S'StripCPEESProducer'
p673
sbsS'_Process__aliases'
p674
(dp675
sS'eegeom'
p676
g0
(cFWCore.ParameterSet.Modules
ESSource
p677
g2
Ntp678
Rp679
(dp680
g38
(lp681
S'iovIsRunNotTime'
p682
aS'recordName'
p683
aS'firstValid'
p684
asg11
I00
sg20
I00
sg40
I6
sg683
g0
(g164
g2
Ntp685
Rp686
(dp687
g11
I00
sg19
I01
sg37
S'EcalMappingRcd'
p688
sg20
I00
sbsg69
S'/cvmfs/cms.cern.ch/slc7_amd64_gcc700/cms/cmssw/CMSSW_10_4_0/python/Geometry/EcalMapping/EcalMappingRecord_cfi.py'
p689
sg684
g0
(cFWCore.ParameterSet.Types
vuint32
p690
g14
(lp691
I1
atp692
Rp693
(dp694
g11
I00
sg19
I01
sg20
I00
sbsg271
g676
sg682
g0
(g33
g2
Ntp695
Rp696
(dp697
g11
I00
sg19
I01
sg37
I01
sg20
I00
sbsg46
S'EmptyESSource'
p698
sbsS'CastorGeometryFromDBEP'
p699
g0
(g254
g2
Ntp700
Rp701
(dp702
g38
(lp703
g586
asg11
I00
sg20
I00
sg40
I53
sg69
g70
sg271
g699
sg586
g0
(g33
g2
Ntp704
Rp705
(dp706
g11
I00
sg19
I01
sg37
I00
sg20
I00
sbsg46
g699
sbsS'CaloTopologyBuilder'
p707
g0
(g254
g2
Ntp708
Rp709
(dp710
g38
(lp711
sg11
I00
sg20
I00
sg40
I53
sg69
g70
sg271
g707
sg46
g707
sbsS'GlobalTrackingGeometryESProducer'
p712
g0
(g254
g2
Ntp713
Rp714
(dp715
g38
(lp716
sg11
I00
sg20
I00
sg40
I53
sg69
g70
sg271
g712
sg46
g712
sbsS'HFRecalParameterBlock'
p717
g0
(g28
g2
Ntp718
Rp719
(dp720
g11
I00
sg19
I01
sg20
I00
sS'HFdepthTwoParameterA'
p721
g0
(cFWCore.ParameterSet.Types
vdouble
p722
g14
(lp723
F0.002861
aF0.004168
aF0.0064
aF0.008388
aF0.011601
aF0.014425
aF0.018633
aF0.023232
aF0.028274
aF0.035447
aF0.051579
aF0.086593
atp724
Rp725
(dp726
g11
I00
sg19
I01
sg20
I00
sbsS'HFdepthOneParameterA'
p727
g0
(g722
g14
(lp728
F0.004123
aF0.00602
aF0.008201
aF0.010489
aF0.013379
aF0.016997
aF0.021464
aF0.027371
aF0.034195
aF0.044807
aF0.058939
aF0.125497
atp729
Rp730
(dp731
g11
I00
sg19
I01
sg20
I00
sbsS'HFdepthOneParameterB'
p732
g0
(g722
g14
(lp733
F-4e-06
aF-2e-06
aF0.0
aF4e-06
aF1.5e-05
aF2.6e-05
aF6.3e-05
aF8.4e-05
aF0.00016
aF0.000107
aF0.000425
aF0.000209
atp734
Rp735
(dp736
g11
I00
sg19
I01
sg20
I00
sbsS'HFdepthTwoParameterB'
p737
g0
(g722
g14
(lp738
F-2e-06
aF-0.0
aF-7e-06
aF-6e-06
aF-2e-06
aF1e-06
aF1.9e-05
aF3.1e-05
aF6.7e-05
aF1.2e-05
aF0.000157
aF-3e-06
atp739
Rp740
(dp741
g11
I00
sg19
I01
sg20
I00
sbsg38
(lp742
g727
ag732
ag737
ag721
asg271
g717
sbsS'trackerGeometryDB'
p743
g0
(g254
g2
Ntp744
Rp745
(dp746
g38
(lp747
g470
ag585
ag586
ag587
asg11
I00
sg470
g0
(g164
g2
Ntp748
Rp749
(dp750
g11
I00
sg19
I01
sg37
g310
sg20
I00
sbsg20
I00
sg587
g0
(g164
g2
Ntp751
Rp752
(dp753
g11
I00
sg19
I01
sg37
g310
sg20
I00
sbsg69
g70
sg40
I53
sg271
g743
sg585
g0
(g33
g2
Ntp754
Rp755
(dp756
g11
I00
sg19
I01
sg37
I00
sg20
I00
sbsg586
g0
(g33
g2
Ntp757
Rp758
(dp759
g11
I00
sg19
I01
sg37
I01
sg20
I00
sbsg46
S'TrackerDigiGeometryESModule'
p760
sbsS'stripCPEESProducer'
p761
g0
(g254
g2
Ntp762
Rp763
(dp764
g38
(lp765
g606
ag607
ag608
asg11
I00
sg20
I00
sg608
g0
(g28
g2
Ntp766
Rp767
(dp768
g11
I00
sg19
I01
sg20
I00
sg38
(lp769
sbsg40
I53
sg607
g0
(g164
g2
Ntp770
Rp771
(dp772
g11
I00
sg19
I01
sg37
S'stripCPE'
p773
sg20
I00
sbsg606
g0
(g164
g2
Ntp774
Rp775
(dp776
g11
I00
sg19
I01
sg37
S'SimpleStripCPE'
p777
sg20
I00
sbsg69
g70
sg271
g761
sg46
g673
sbsS'pfChargedHadronAnalyzer'
p778
g0
(cFWCore.ParameterSet.Modules
EDAnalyzer
p779
g2
Ntp780
Rp781
(dp782
g38
(lp783
g303
aS'HcalPFClusters'
p784
aS'PFCandidates'
p785
aS'nPixMin'
p786
aS'hcalMin'
p787
aS'pMin'
p788
aS'nHitMin'
p789
aS'ptMin'
p790
aS'PFSimParticles'
p791
aS'ecalMax'
p792
aS'nEtaMin'
p793
aS'EcalPFClusters'
p794
aS'genParticles'
p795
aS'rootOutputFile'
p796
asg11
I00
sg784
g0
(g304
g2
Ntp797
Rp798
(dp799
g11
I00
sg19
I01
sg20
I00
sg308
S'particleFlowClusterHCAL'
p800
sg309
g310
sg311
g310
sbsg40
I67
sg786
g0
(g103
g2
Ntp801
Rp802
(dp803
g11
I00
sg19
I01
sg37
I2
sg20
I00
sbsg271
g778
sg20
I00
sg785
g0
(g304
g2
Ntp804
Rp805
(dp806
g11
I00
sg19
I01
sg20
I00
sg308
S'particleFlow'
p807
sg309
g310
sg311
g310
sbsg787
g0
(g341
g2
Ntp808
Rp809
(dp810
g11
I00
sg19
I01
sg37
F0.5
sg20
I00
sbsg788
g0
(g341
g2
Ntp811
Rp812
(dp813
g11
I00
sg19
I01
sg37
F1.0
sg20
I00
sbsg792
g0
(g341
g2
Ntp814
Rp815
(dp816
g11
I00
sg19
I01
sg37
F1000000000.0
sg20
I00
sbsg796
g0
(g164
g2
Ntp817
Rp818
(dp819
g11
I00
sg19
I01
sg37
S'step99_pi_100k_trees.root'
p820
sg20
I00
sbsg790
g0
(g341
g2
Ntp821
Rp822
(dp823
g11
I00
sg19
I01
sg37
F1.0
sg20
I00
sbsg791
g0
(g304
g2
Ntp824
Rp825
(dp826
g11
I00
sg19
I01
sg20
I00
sg308
g380
sg309
g310
sg311
g310
sbsg69
S'/afs/cern.ch/work/m/mmyllyma/singleParticleResponse/CMSSW_10_4_0/src/PFCalibration/PFChargedHadronAnalyzer/mmylly/pi+/myAnalysis_pi_100k.py'
p827
sg789
g0
(g350
g14
(lp828
I14
aI17
aI20
aI17
aI10
atp829
Rp830
(dp831
g11
I00
sg19
I01
sg20
I00
sbsg793
g0
(g722
g14
(lp832
F1.4
aF1.6
aF2.0
aF2.4
aF2.6
atp833
Rp834
(dp835
g11
I00
sg19
I01
sg20
I00
sbsg794
g0
(g304
g2
Ntp836
Rp837
(dp838
g11
I00
sg19
I01
sg20
I00
sg308
S'particleFlowClusterECAL'
p839
sg309
g310
sg311
g310
sbsg795
g0
(g304
g2
Ntp840
Rp841
(dp842
g11
I00
sg19
I01
sg20
I00
sg308
g795
sg309
g310
sg311
g310
sbsg46
S'PFChargedHadronAnalyzer'
p843
sg303
g0
(g33
g2
Ntp844
Rp845
(dp846
g11
I00
sg19
I00
sg37
I01
sg20
I00
sbsbsS'siStripLorentzAngleDepESProducer'
p847
g0
(g254
g2
Ntp848
Rp849
(dp850
g38
(lp851
g406
aS'LorentzAngleDeconvMode'
p852
aS'LorentzAnglePeakMode'
p853
asg11
I00
sg20
I00
sg40
I53
sg69
g70
sg406
g0
(g28
g2
Ntp854
Rp855
(dp856
g11
I00
sg19
I01
sg20
I00
sg412
g0
(g164
g2
Ntp857
Rp858
(dp859
g11
I00
sg19
I00
sg37
g310
sg20
I00
sbsg416
g0
(g164
g2
Ntp860
Rp861
(dp862
g11
I00
sg19
I01
sg37
g420
sg20
I00
sbsg38
(lp863
g416
ag412
asbsg271
g847
sg853
g0
(g28
g2
Ntp864
Rp865
(dp866
g11
I00
sg19
I01
sg20
I00
sg412
g0
(g164
g2
Ntp867
Rp868
(dp869
g11
I00
sg19
I00
sg37
g428
sg20
I00
sbsg416
g0
(g164
g2
Ntp870
Rp871
(dp872
g11
I00
sg19
I01
sg37
S'SiStripLorentzAngleRcd'
p873
sg20
I00
sbsg38
(lp874
g416
ag412
asbsg46
S'SiStripLorentzAngleDepESProducer'
p875
sg852
g0
(g28
g2
Ntp876
Rp877
(dp878
g11
I00
sg19
I01
sg20
I00
sg412
g0
(g164
g2
Ntp879
Rp880
(dp881
g11
I00
sg19
I00
sg37
g440
sg20
I00
sbsg416
g0
(g164
g2
Ntp882
Rp883
(dp884
g11
I00
sg19
I01
sg37
g873
sg20
I00
sbsg38
(lp885
g416
ag412
asbsbsS'GEMGeometryESModule'
p886
g0
(g254
g2
Ntp887
Rp888
(dp889
g38
(lp890
S'useDDD'
p891
asg11
I00
sg20
I00
sg40
I53
sg69
g70
sg891
g0
(g33
g2
Ntp892
Rp893
(dp894
g11
I00
sg19
I01
sg37
I00
sg20
I00
sbsg271
g886
sg46
g886
sbsS'hcalTopologyIdeal'
p895
g0
(g254
g2
Ntp896
Rp897
(dp898
g38
(lp899
S'MergePosition'
p900
aS'Exclude'
p901
ag470
asg11
I00
sg470
g0
(g164
g2
Ntp902
Rp903
(dp904
g11
I00
sg19
I01
sg37
g310
sg20
I00
sbsg20
I00
sg40
I53
sg900
g0
(g33
g2
Ntp905
Rp906
(dp907
g11
I00
sg19
I00
sg37
I00
sg20
I00
sbsg69
g70
sg271
g895
sg901
g0
(g164
g2
Ntp908
Rp909
(dp910
g11
I00
sg19
I00
sg37
g310
sg20
I00
sbsg46
S'HcalTopologyIdealEP'
p911
sbsS'_Process__psets'
p912
(dp913
S'maxEvents'
p914
g0
(g28
g2
Ntp915
Rp916
(dp917
g11
I00
sg19
I00
sg20
I00
sg38
(lp918
S'input'
p919
asg271
g914
sg919
g0
(g103
g2
Ntp920
Rp921
(dp922
g11
I00
sg19
I00
sg37
I-1
sg20
I00
sbsbsg717
g719
sS'options'
p923
g0
(g28
g2
Ntp924
Rp925
(dp926
g11
I00
sg19
I00
sg271
g923
sg20
I00
sg38
(lp927
sbssS'hcal_db_producer'
p928
g0
(g254
g2
Ntp929
Rp930
(dp931
g38
(lp932
S'file'
p933
aS'dump'
p934
asg11
I00
sg20
I00
sg934
g0
(g13
g14
(lp935
g310
atp936
Rp937
(dp938
g11
I00
sg19
I00
sg20
I00
sg21
I1
sbsg40
I53
sg69
g70
sg933
g0
(g164
g2
Ntp939
Rp940
(dp941
g11
I00
sg19
I00
sg37
g310
sg20
I00
sbsg271
g928
sg46
S'HcalDbProducer'
p942
sbsS'_Process__essources'
p943
(dp944
S'HepPDTESSource'
p945
g0
(g677
g2
Ntp946
Rp947
(dp948
g38
(lp949
S'pdtFileName'
p950
asg11
I00
sg950
g0
(cFWCore.ParameterSet.Types
FileInPath
p951
g2
Ntp952
Rp953
(dp954
g11
I00
sg19
I01
sg37
S'SimGeneral/HepPDTESSource/data/pythiaparticle.tbl'
p955
sg20
I00
sbsg20
I00
sg40
I4
sg69
S'/cvmfs/cms.cern.ch/slc7_amd64_gcc700/cms/cmssw/CMSSW_10_4_0/python/SimGeneral/HepPDTESSource/pythiapdt_cfi.py'
p956
sg271
g945
sg46
g945
sbsS'es_hardcode'
p957
g0
(g677
g2
Ntp958
Rp959
(dp960
g11
I00
sg40
I172
sS'useHEUpgrade'
p961
g0
(g33
g2
Ntp962
Rp963
(dp964
g11
I00
sg19
I01
sg37
I01
sg20
I00
sbsS'HBRecalibration'
p965
g0
(g33
g2
Ntp966
Rp967
(dp968
g11
I00
sg19
I01
sg37
I00
sg20
I00
sbsS'useLayer0Weight'
p969
g0
(g33
g2
Ntp970
Rp971
(dp972
g11
I00
sg19
I01
sg37
I01
sg20
I00
sbsS'HEmeanenergies'
p973
g0
(g951
g2
Ntp974
Rp975
(dp976
g11
I00
sg19
I01
sg37
S'CalibCalorimetry/HcalPlugins/data/meanenergiesHE.txt'
p977
sg20
I00
sbsg717
g719
sS'heUpgrade'
p978
g0
(g28
g2
Ntp979
Rp980
(dp981
g11
I00
sg19
I01
sS'qieType'
p982
g0
(g103
g2
Ntp983
Rp984
(dp985
g11
I00
sg19
I01
sg37
I2
sg20
I00
sbsg20
I00
sS'pedestalWidth'
p986
g0
(g341
g2
Ntp987
Rp988
(dp989
g11
I00
sg19
I01
sg37
F1.5
sg20
I00
sbsS'recoShape'
p990
g0
(g103
g2
Ntp991
Rp992
(dp993
g11
I00
sg19
I01
sg37
I206
sg20
I00
sbsS'zsThreshold'
p994
g0
(g103
g2
Ntp995
Rp996
(dp997
g11
I00
sg19
I01
sg37
I16
sg20
I00
sbsS'darkCurrent'
p998
g0
(g722
g14
(lp999
F0.01
aF0.015
atp1000
Rp1001
(dp1002
g11
I00
sg19
I01
sg20
I00
sbsS'qieOffset'
p1003
g0
(g722
g14
(lp1004
F0.0
aF0.0
aF0.0
aF0.0
atp1005
Rp1006
(dp1007
g11
I00
sg19
I01
sg20
I00
sbsS'qieSlope'
p1008
g0
(g722
g14
(lp1009
F0.05376
aF0.05376
aF0.05376
aF0.05376
atp1010
Rp1011
(dp1012
g11
I00
sg19
I01
sg20
I00
sbsS'radiationDamage'
p1013
g0
(g28
g2
Ntp1014
Rp1015
(dp1016
g11
I00
sg19
I01
sS'temperatureNew'
p1017
g0
(g341
g2
Ntp1018
Rp1019
(dp1020
g11
I00
sg19
I01
sg37
I5
sg20
I00
sbsg20
I00
sS'depVsNeutrons'
p1021
g0
(g722
g14
(lp1022
F5.543e-10
aF8.012e-10
atp1023
Rp1024
(dp1025
g11
I00
sg19
I01
sg20
I00
sbsS'temperatureBase'
p1026
g0
(g341
g2
Ntp1027
Rp1028
(dp1029
g11
I00
sg19
I01
sg37
I20
sg20
I00
sbsS'depVsTemp'
p1030
g0
(g341
g2
Ntp1031
Rp1032
(dp1033
g11
I00
sg19
I01
sg37
F0.0631
sg20
I00
sbsS'intlumiOffset'
p1034
g0
(g341
g2
Ntp1035
Rp1036
(dp1037
g11
I00
sg19
I01
sg37
I75
sg20
I00
sbsg38
(lp1038
g1017
ag1021
ag1026
ag1030
ag1034
aS'intlumiToNeutrons'
p1039
asg1039
g0
(g341
g2
Ntp1040
Rp1041
(dp1042
g11
I00
sg19
I01
sg37
F29200000.0
sg20
I00
sbsbsS'doRadiationDamage'
p1043
g0
(g33
g2
Ntp1044
Rp1045
(dp1046
g11
I00
sg19
I01
sg37
I01
sg20
I00
sbsg38
(lp1047
g982
ag986
ag990
ag994
aS'photoelectronsToAnalog'
p1048
ag1003
ag1008
ag1013
ag1043
ag998
aS'pedestal'
p1049
aS'mcShape'
p1050
aS'gainWidth'
p1051
aS'gain'
p1052
asg1048
g0
(g341
g2
Ntp1053
Rp1054
(dp1055
g11
I00
sg19
I01
sg37
F40.0
sg20
I00
sbsg1049
g0
(g341
g2
Ntp1056
Rp1057
(dp1058
g11
I00
sg19
I01
sg37
F17.3
sg20
I00
sbsg1050
g0
(g103
g2
Ntp1059
Rp1060
(dp1061
g11
I00
sg19
I01
sg37
I206
sg20
I00
sbsg1051
g0
(g722
g14
(lp1062
I0
atp1063
Rp1064
(dp1065
g11
I00
sg19
I01
sg20
I00
sbsg1052
g0
(g722
g14
(lp1066
F0.0006252
atp1067
Rp1068
(dp1069
g11
I00
sg19
I01
sg20
I00
sbsbsg38
(lp1070
S'toGet'
p1071
ag965
ag969
ag973
ag717
ag978
aS'useIeta18depth1'
p1072
aS'killHE'
p1073
aS'useHBUpgrade'
p1074
aS'hbUpgrade'
p1075
aS'testHEPlan1'
p1076
aS'iLumi'
p1077
aS'testHFQIE10'
p1078
aS'HBmeanenergies'
p1079
ag961
aS'GainWidthsForTrigPrims'
p1080
aS'HBreCalibCutoff'
p1081
aS'HFRecalibration'
p1082
aS'ho'
p1083
aS'hb'
p1084
aS'hf'
p1085
aS'he'
p1086
aS'HERecalibration'
p1087
aS'useHFUpgrade'
p1088
aS'HEreCalibCutoff'
p1089
aS'SiPMCharacteristics'
p1090
aS'useHOUpgrade'
p1091
aS'hfUpgrade'
p1092
asg69
S'/cvmfs/cms.cern.ch/slc7_amd64_gcc700/cms/cmssw/CMSSW_10_4_0/python/CalibCalorimetry/HcalPlugins/Hcal_Conditions_forGlobalTag_cff.py'
p1093
sg1072
g0
(g33
g2
Ntp1094
Rp1095
(dp1096
g11
I00
sg19
I01
sg37
I00
sg20
I00
sbsg1073
g0
(g33
g2
Ntp1097
Rp1098
(dp1099
g11
I00
sg19
I01
sg37
I00
sg20
I00
sbsg1074
g0
(g33
g2
Ntp1100
Rp1101
(dp1102
g11
I00
sg19
I01
sg37
I00
sg20
I00
sbsg1075
g0
(g28
g2
Ntp1103
Rp1104
(dp1105
g11
I00
sg19
I01
sg982
g0
(g103
g2
Ntp1106
Rp1107
(dp1108
g11
I00
sg19
I01
sg37
I2
sg20
I00
sbsg20
I00
sg986
g0
(g341
g2
Ntp1109
Rp1110
(dp1111
g11
I00
sg19
I01
sg37
F1.5
sg20
I00
sbsg990
g0
(g103
g2
Ntp1112
Rp1113
(dp1114
g11
I00
sg19
I01
sg37
I206
sg20
I00
sbsg994
g0
(g103
g2
Ntp1115
Rp1116
(dp1117
g11
I00
sg19
I01
sg37
I16
sg20
I00
sbsg998
g0
(g722
g14
(lp1118
F0.01
aF0.015
atp1119
Rp1120
(dp1121
g11
I00
sg19
I01
sg20
I00
sbsg1003
g0
(g722
g14
(lp1122
F0.0
aF0.0
aF0.0
aF0.0
atp1123
Rp1124
(dp1125
g11
I00
sg19
I01
sg20
I00
sbsg1008
g0
(g722
g14
(lp1126
F0.05376
aF0.05376
aF0.05376
aF0.05376
atp1127
Rp1128
(dp1129
g11
I00
sg19
I01
sg20
I00
sbsg1013
g0
(g28
g2
Ntp1130
Rp1131
(dp1132
g11
I00
sg19
I01
sg1017
g0
(g341
g2
Ntp1133
Rp1134
(dp1135
g11
I00
sg19
I01
sg37
I-5
sg20
I00
sbsg20
I00
sg1021
g0
(g722
g14
(lp1136
F5.543e-10
aF8.012e-10
atp1137
Rp1138
(dp1139
g11
I00
sg19
I01
sg20
I00
sbsg1026
g0
(g341
g2
Ntp1140
Rp1141
(dp1142
g11
I00
sg19
I01
sg37
I20
sg20
I00
sbsg1030
g0
(g341
g2
Ntp1143
Rp1144
(dp1145
g11
I00
sg19
I01
sg37
F0.0631
sg20
I00
sbsg1034
g0
(g341
g2
Ntp1146
Rp1147
(dp1148
g11
I00
sg19
I01
sg37
I150
sg20
I00
sbsg38
(lp1149
g1017
ag1021
ag1026
ag1030
ag1034
ag1039
asg1039
g0
(g341
g2
Ntp1150
Rp1151
(dp1152
g11
I00
sg19
I01
sg37
F367000000.0
sg20
I00
sbsbsg1043
g0
(g33
g2
Ntp1153
Rp1154
(dp1155
g11
I00
sg19
I01
sg37
I01
sg20
I00
sbsg38
(lp1156
g982
ag986
ag990
ag994
ag1048
ag1003
ag1008
ag1013
ag1043
ag998
ag1049
ag1050
ag1051
ag1052
asg1048
g0
(g341
g2
Ntp1157
Rp1158
(dp1159
g11
I00
sg19
I01
sg37
F40.0
sg20
I00
sbsg1049
g0
(g341
g2
Ntp1160
Rp1161
(dp1162
g11
I00
sg19
I01
sg37
F17.3
sg20
I00
sbsg1050
g0
(g103
g2
Ntp1163
Rp1164
(dp1165
g11
I00
sg19
I01
sg37
I206
sg20
I00
sbsg1051
g0
(g722
g14
(lp1166
I0
atp1167
Rp1168
(dp1169
g11
I00
sg19
I01
sg20
I00
sbsg1052
g0
(g722
g14
(lp1170
F0.0006252
atp1171
Rp1172
(dp1173
g11
I00
sg19
I01
sg20
I00
sbsbsg46
S'HcalHardcodeCalibrations'
p1174
sg1076
g0
(g33
g2
Ntp1175
Rp1176
(dp1177
g11
I00
sg19
I01
sg37
I00
sg20
I00
sbsg1077
g0
(g341
g2
Ntp1178
Rp1179
(dp1180
g11
I00
sg19
I01
sg37
F-1.0
sg20
I00
sbsg1078
g0
(g33
g2
Ntp1181
Rp1182
(dp1183
g11
I00
sg19
I01
sg37
I00
sg20
I00
sbsg1079
g0
(g951
g2
Ntp1184
Rp1185
(dp1186
g11
I00
sg19
I01
sg37
S'CalibCalorimetry/HcalPlugins/data/meanenergiesHB.txt'
p1187
sg20
I00
sbsg1071
g0
(g13
g14
(lp1188
S'GainWidths'
p1189
atp1190
Rp1191
(dp1192
g11
I00
sg19
I00
sg20
I00
sg21
I1
sbsg1080
g0
(g33
g2
Ntp1193
Rp1194
(dp1195
g11
I00
sg19
I01
sg37
I00
sg20
I00
sbsg1081
g0
(g341
g2
Ntp1196
Rp1197
(dp1198
g11
I00
sg19
I01
sg37
F20.0
sg20
I00
sbsg1082
g0
(g33
g2
Ntp1199
Rp1200
(dp1201
g11
I00
sg19
I01
sg37
I00
sg20
I00
sbsg1083
g0
(g28
g2
Ntp1202
Rp1203
(dp1204
g11
I00
sg19
I01
sg982
g0
(g103
g2
Ntp1205
Rp1206
(dp1207
g11
I00
sg19
I01
sg37
I0
sg20
I00
sbsg20
I00
sg986
g0
(g341
g2
Ntp1208
Rp1209
(dp1210
g11
I00
sg19
I01
sg37
F0.6285
sg20
I00
sbsg990
g0
(g103
g2
Ntp1211
Rp1212
(dp1213
g11
I00
sg19
I01
sg37
I201
sg20
I00
sbsg994
g0
(g103
g2
Ntp1214
Rp1215
(dp1216
g11
I00
sg19
I01
sg37
I24
sg20
I00
sbsg998
g0
(g722
g14
(lp1217
F0.0
atp1218
Rp1219
(dp1220
g11
I00
sg19
I01
sg20
I00
sbsg1003
g0
(g722
g14
(lp1221
F-0.44
aF1.4
aF7.1
aF38.5
atp1222
Rp1223
(dp1224
g11
I00
sg19
I01
sg20
I00
sbsg1008
g0
(g722
g14
(lp1225
F0.907
aF0.915
aF0.92
aF0.921
atp1226
Rp1227
(dp1228
g11
I00
sg19
I01
sg20
I00
sbsg1052
g0
(g722
g14
(lp1229
F0.006
aF0.0087
atp1230
Rp1231
(dp1232
g11
I00
sg19
I01
sg20
I00
sbsg1043
g0
(g33
g2
Ntp1233
Rp1234
(dp1235
g11
I00
sg19
I01
sg37
I00
sg20
I00
sbsg38
(lp1236
g982
ag986
ag990
ag994
ag1048
ag1003
ag1008
ag1052
ag1043
ag998
ag1049
ag1050
ag1051
asg1048
g0
(g341
g2
Ntp1237
Rp1238
(dp1239
g11
I00
sg19
I01
sg37
F4.0
sg20
I00
sbsg1049
g0
(g341
g2
Ntp1240
Rp1241
(dp1242
g11
I00
sg19
I01
sg37
F12.06
sg20
I00
sbsg1050
g0
(g103
g2
Ntp1243
Rp1244
(dp1245
g11
I00
sg19
I01
sg37
I201
sg20
I00
sbsg1051
g0
(g722
g14
(lp1246
F0.0
aF0.0
atp1247
Rp1248
(dp1249
g11
I00
sg19
I01
sg20
I00
sbsbsg1084
g0
(g28
g2
Ntp1250
Rp1251
(dp1252
g11
I00
sg19
I01
sg982
g0
(g103
g2
Ntp1253
Rp1254
(dp1255
g11
I00
sg19
I01
sg37
I0
sg20
I00
sbsg20
I00
sg986
g0
(g341
g2
Ntp1256
Rp1257
(dp1258
g11
I00
sg19
I01
sg37
F0.809
sg20
I00
sbsg990
g0
(g103
g2
Ntp1259
Rp1260
(dp1261
g11
I00
sg19
I01
sg37
I105
sg20
I00
sbsg994
g0
(g103
g2
Ntp1262
Rp1263
(dp1264
g11
I00
sg19
I01
sg37
I8
sg20
I00
sbsg998
g0
(g722
g14
(lp1265
F0.0
atp1266
Rp1267
(dp1268
g11
I00
sg19
I01
sg20
I00
sbsg1003
g0
(g722
g14
(lp1269
F-0.49
aF1.8
aF7.2
aF37.9
atp1270
Rp1271
(dp1272
g11
I00
sg19
I01
sg20
I00
sbsg1008
g0
(g722
g14
(lp1273
F0.912
aF0.917
aF0.922
aF0.923
atp1274
Rp1275
(dp1276
g11
I00
sg19
I01
sg20
I00
sbsg1052
g0
(g722
g14
(lp1277
F0.19
atp1278
Rp1279
(dp1280
g11
I00
sg19
I01
sg20
I00
sbsg1043
g0
(g33
g2
Ntp1281
Rp1282
(dp1283
g11
I00
sg19
I01
sg37
I00
sg20
I00
sbsg38
(lp1284
g982
ag986
ag990
ag994
ag1048
ag1003
ag1008
ag1052
ag1043
ag998
ag1049
ag1050
ag1051
asg1048
g0
(g341
g2
Ntp1285
Rp1286
(dp1287
g11
I00
sg19
I01
sg37
F0.3305
sg20
I00
sbsg1049
g0
(g341
g2
Ntp1288
Rp1289
(dp1290
g11
I00
sg19
I01
sg37
F3.285
sg20
I00
sbsg1050
g0
(g103
g2
Ntp1291
Rp1292
(dp1293
g11
I00
sg19
I01
sg37
I125
sg20
I00
sbsg1051
g0
(g722
g14
(lp1294
F0.0
atp1295
Rp1296
(dp1297
g11
I00
sg19
I01
sg20
I00
sbsbsg1085
g0
(g28
g2
Ntp1298
Rp1299
(dp1300
g11
I00
sg19
I01
sg982
g0
(g103
g2
Ntp1301
Rp1302
(dp1303
g11
I00
sg19
I01
sg37
I0
sg20
I00
sbsg20
I00
sg986
g0
(g341
g2
Ntp1304
Rp1305
(dp1306
g11
I00
sg19
I01
sg37
F2.516
sg20
I00
sbsg990
g0
(g103
g2
Ntp1307
Rp1308
(dp1309
g11
I00
sg19
I01
sg37
I301
sg20
I00
sbsg994
g0
(g103
g2
Ntp1310
Rp1311
(dp1312
g11
I00
sg19
I01
sg37
I-9999
sg20
I00
sbsg998
g0
(g722
g14
(lp1313
F0.0
atp1314
Rp1315
(dp1316
g11
I00
sg19
I01
sg20
I00
sbsg1003
g0
(g722
g14
(lp1317
F-0.87
aF1.4
aF7.8
aF-29.6
atp1318
Rp1319
(dp1320
g11
I00
sg19
I01
sg20
I00
sbsg1008
g0
(g722
g14
(lp1321
F0.359
aF0.358
aF0.36
aF0.367
atp1322
Rp1323
(dp1324
g11
I00
sg19
I01
sg20
I00
sbsg1052
g0
(g722
g14
(lp1325
F0.14
aF0.135
atp1326
Rp1327
(dp1328
g11
I00
sg19
I01
sg20
I00
sbsg1043
g0
(g33
g2
Ntp1329
Rp1330
(dp1331
g11
I00
sg19
I01
sg37
I00
sg20
I00
sbsg38
(lp1332
g982
ag986
ag990
ag994
ag1048
ag1003
ag1008
ag1052
ag1043
ag998
ag1049
ag1050
ag1051
asg1048
g0
(g341
g2
Ntp1333
Rp1334
(dp1335
g11
I00
sg19
I01
sg37
F0.0
sg20
I00
sbsg1049
g0
(g341
g2
Ntp1336
Rp1337
(dp1338
g11
I00
sg19
I01
sg37
F9.354
sg20
I00
sbsg1050
g0
(g103
g2
Ntp1339
Rp1340
(dp1341
g11
I00
sg19
I01
sg37
I301
sg20
I00
sbsg1051
g0
(g722
g14
(lp1342
F0.0
aF0.0
atp1343
Rp1344
(dp1345
g11
I00
sg19
I01
sg20
I00
sbsbsg1086
g0
(g28
g2
Ntp1346
Rp1347
(dp1348
g11
I00
sg19
I01
sg982
g0
(g103
g2
Ntp1349
Rp1350
(dp1351
g11
I00
sg19
I01
sg37
I0
sg20
I00
sbsg20
I00
sg986
g0
(g341
g2
Ntp1352
Rp1353
(dp1354
g11
I00
sg19
I01
sg37
F0.9698
sg20
I00
sbsg990
g0
(g103
g2
Ntp1355
Rp1356
(dp1357
g11
I00
sg19
I01
sg37
I105
sg20
I00
sbsg994
g0
(g103
g2
Ntp1358
Rp1359
(dp1360
g11
I00
sg19
I01
sg37
I9
sg20
I00
sbsg998
g0
(g722
g14
(lp1361
F0.0
atp1362
Rp1363
(dp1364
g11
I00
sg19
I01
sg20
I00
sbsg1003
g0
(g722
g14
(lp1365
F-0.38
aF2.0
aF7.6
aF39.6
atp1366
Rp1367
(dp1368
g11
I00
sg19
I01
sg20
I00
sbsg1008
g0
(g722
g14
(lp1369
F0.912
aF0.916
aF0.92
aF0.922
atp1370
Rp1371
(dp1372
g11
I00
sg19
I01
sg20
I00
sbsg1052
g0
(g722
g14
(lp1373
F0.23
atp1374
Rp1375
(dp1376
g11
I00
sg19
I01
sg20
I00
sbsg1043
g0
(g33
g2
Ntp1377
Rp1378
(dp1379
g11
I00
sg19
I01
sg37
I00
sg20
I00
sbsg38
(lp1380
g982
ag986
ag990
ag994
ag1048
ag1003
ag1008
ag1052
ag1043
ag998
ag1049
ag1050
ag1051
asg1048
g0
(g341
g2
Ntp1381
Rp1382
(dp1383
g11
I00
sg19
I01
sg37
F0.3305
sg20
I00
sbsg1049
g0
(g341
g2
Ntp1384
Rp1385
(dp1386
g11
I00
sg19
I01
sg37
F3.163
sg20
I00
sbsg1050
g0
(g103
g2
Ntp1387
Rp1388
(dp1389
g11
I00
sg19
I01
sg37
I125
sg20
I00
sbsg1051
g0
(g722
g14
(lp1390
I0
atp1391
Rp1392
(dp1393
g11
I00
sg19
I01
sg20
I00
sbsbsg20
I01
sg1087
g0
(g33
g2
Ntp1394
Rp1395
(dp1396
g11
I00
sg19
I01
sg37
I00
sg20
I00
sbsg1088
g0
(g33
g2
Ntp1397
Rp1398
(dp1399
g11
I00
sg19
I01
sg37
I01
sg20
I00
sbsg1089
g0
(g341
g2
Ntp1400
Rp1401
(dp1402
g11
I00
sg19
I01
sg37
F100.0
sg20
I00
sbsg1090
g0
(g488
g14
(lp1403
g0
(g28
g2
Ntp1404
Rp1405
(dp1406
g11
I00
sg19
I01
sg20
I00
sS'crosstalk'
p1407
g0
(g341
g2
Ntp1408
Rp1409
(dp1410
g11
I00
sg19
I01
sg37
F0.0
sg20
I00
sbsS'nonlin1'
p1411
g0
(g341
g2
Ntp1412
Rp1413
(dp1414
g11
I00
sg19
I01
sg37
F1.0
sg20
I00
sbsS'nonlin3'
p1415
g0
(g341
g2
Ntp1416
Rp1417
(dp1418
g11
I00
sg19
I01
sg37
F0.0
sg20
I00
sbsS'nonlin2'
p1419
g0
(g341
g2
Ntp1420
Rp1421
(dp1422
g11
I00
sg19
I01
sg37
F0.0
sg20
I00
sbsg38
(lp1423
g1411
ag1415
ag1419
aS'pixels'
p1424
ag1407
asg1424
g0
(g103
g2
Ntp1425
Rp1426
(dp1427
g11
I00
sg19
I01
sg37
I36000
sg20
I00
sbsbag0
(g28
g2
Ntp1428
Rp1429
(dp1430
g11
I00
sg19
I01
sg20
I00
sg1407
g0
(g341
g2
Ntp1431
Rp1432
(dp1433
g11
I00
sg19
I01
sg37
F0.0
sg20
I00
sbsg1411
g0
(g341
g2
Ntp1434
Rp1435
(dp1436
g11
I00
sg19
I01
sg37
F1.0
sg20
I00
sbsg1415
g0
(g341
g2
Ntp1437
Rp1438
(dp1439
g11
I00
sg19
I01
sg37
F0.0
sg20
I00
sbsg1419
g0
(g341
g2
Ntp1440
Rp1441
(dp1442
g11
I00
sg19
I01
sg37
F0.0
sg20
I00
sbsg38
(lp1443
g1411
ag1415
ag1419
ag1424
ag1407
asg1424
g0
(g103
g2
Ntp1444
Rp1445
(dp1446
g11
I00
sg19
I01
sg37
I2500
sg20
I00
sbsbag0
(g28
g2
Ntp1447
Rp1448
(dp1449
g11
I00
sg19
I01
sg20
I00
sg1407
g0
(g341
g2
Ntp1450
Rp1451
(dp1452
g11
I00
sg19
I01
sg37
F0.17
sg20
I00
sbsg1411
g0
(g341
g2
Ntp1453
Rp1454
(dp1455
g11
I00
sg19
I01
sg37
F1.00985
sg20
I00
sbsg1415
g0
(g341
g2
Ntp1456
Rp1457
(dp1458
g11
I00
sg19
I01
sg37
F2.86282e-10
sg20
I00
sbsg1419
g0
(g341
g2
Ntp1459
Rp1460
(dp1461
g11
I00
sg19
I01
sg37
F7.84089e-06
sg20
I00
sbsg38
(lp1462
g1411
ag1415
ag1419
ag1424
ag1407
asg1424
g0
(g103
g2
Ntp1463
Rp1464
(dp1465
g11
I00
sg19
I01
sg37
I27370
sg20
I00
sbsbag0
(g28
g2
Ntp1466
Rp1467
(dp1468
g11
I00
sg19
I01
sg20
I00
sg1407
g0
(g341
g2
Ntp1469
Rp1470
(dp1471
g11
I00
sg19
I01
sg37
F0.196
sg20
I00
sbsg1411
g0
(g341
g2
Ntp1472
Rp1473
(dp1474
g11
I00
sg19
I01
sg37
F1.00546
sg20
I00
sbsg1415
g0
(g341
g2
Ntp1475
Rp1476
(dp1477
g11
I00
sg19
I01
sg37
F1.27011e-10
sg20
I00
sbsg1419
g0
(g341
g2
Ntp1478
Rp1479
(dp1480
g11
I00
sg19
I01
sg37
F6.40239e-06
sg20
I00
sbsg38
(lp1481
g1411
ag1415
ag1419
ag1424
ag1407
asg1424
g0
(g103
g2
Ntp1482
Rp1483
(dp1484
g11
I00
sg19
I01
sg37
I38018
sg20
I00
sbsbag0
(g28
g2
Ntp1485
Rp1486
(dp1487
g11
I00
sg19
I01
sg20
I00
sg1407
g0
(g341
g2
Ntp1488
Rp1489
(dp1490
g11
I00
sg19
I01
sg37
F0.17
sg20
I00
sbsg1411
g0
(g341
g2
Ntp1491
Rp1492
(dp1493
g11
I00
sg19
I01
sg37
F1.00985
sg20
I00
sbsg1415
g0
(g341
g2
Ntp1494
Rp1495
(dp1496
g11
I00
sg19
I01
sg37
F2.86282e-10
sg20
I00
sbsg1419
g0
(g341
g2
Ntp1497
Rp1498
(dp1499
g11
I00
sg19
I01
sg37
F7.84089e-06
sg20
I00
sbsg38
(lp1500
g1411
ag1415
ag1419
ag1424
ag1407
asg1424
g0
(g103
g2
Ntp1501
Rp1502
(dp1503
g11
I00
sg19
I01
sg37
I27370
sg20
I00
sbsbag0
(g28
g2
Ntp1504
Rp1505
(dp1506
g11
I00
sg19
I01
sg20
I00
sg1407
g0
(g341
g2
Ntp1507
Rp1508
(dp1509
g11
I00
sg19
I01
sg37
F0.196
sg20
I00
sbsg1411
g0
(g341
g2
Ntp1510
Rp1511
(dp1512
g11
I00
sg19
I01
sg37
F1.00546
sg20
I00
sbsg1415
g0
(g341
g2
Ntp1513
Rp1514
(dp1515
g11
I00
sg19
I01
sg37
F1.27011e-10
sg20
I00
sbsg1419
g0
(g341
g2
Ntp1516
Rp1517
(dp1518
g11
I00
sg19
I01
sg37
F6.40239e-06
sg20
I00
sbsg38
(lp1519
g1411
ag1415
ag1419
ag1424
ag1407
asg1424
g0
(g103
g2
Ntp1520
Rp1521
(dp1522
g11
I00
sg19
I01
sg37
I38018
sg20
I00
sbsbag0
(g28
g2
Ntp1523
Rp1524
(dp1525
g11
I00
sg19
I01
sg20
I00
sg1407
g0
(g341
g2
Ntp1526
Rp1527
(dp1528
g11
I00
sg19
I01
sg37
F0.0
sg20
I00
sbsg1411
g0
(g341
g2
Ntp1529
Rp1530
(dp1531
g11
I00
sg19
I01
sg37
F1.0
sg20
I00
sbsg1415
g0
(g341
g2
Ntp1532
Rp1533
(dp1534
g11
I00
sg19
I01
sg37
F0.0
sg20
I00
sbsg1419
g0
(g341
g2
Ntp1535
Rp1536
(dp1537
g11
I00
sg19
I01
sg37
F0.0
sg20
I00
sbsg38
(lp1538
g1411
ag1415
ag1419
ag1424
ag1407
asg1424
g0
(g103
g2
Ntp1539
Rp1540
(dp1541
g11
I00
sg19
I01
sg37
I0
sg20
I00
sbsbatp1542
Rp1543
(dp1544
g11
I00
sg19
I01
sg20
I00
sg21
I1
sbsg271
g957
sg1091
g0
(g33
g2
Ntp1545
Rp1546
(dp1547
g11
I00
sg19
I01
sg37
I01
sg20
I00
sbsg1092
g0
(g28
g2
Ntp1548
Rp1549
(dp1550
g11
I00
sg19
I01
sg982
g0
(g103
g2
Ntp1551
Rp1552
(dp1553
g11
I00
sg19
I01
sg37
I1
sg20
I00
sbsg20
I00
sg986
g0
(g341
g2
Ntp1554
Rp1555
(dp1556
g11
I00
sg19
I01
sg37
F3.33
sg20
I00
sbsg990
g0
(g103
g2
Ntp1557
Rp1558
(dp1559
g11
I00
sg19
I01
sg37
I301
sg20
I00
sbsg994
g0
(g103
g2
Ntp1560
Rp1561
(dp1562
g11
I00
sg19
I01
sg37
I-9999
sg20
I00
sbsg998
g0
(g722
g14
(lp1563
F0.0
atp1564
Rp1565
(dp1566
g11
I00
sg19
I01
sg20
I00
sbsg1003
g0
(g722
g14
(lp1567
F0.0697
aF-0.7405
aF12.38
aF-671.9
atp1568
Rp1569
(dp1570
g11
I00
sg19
I01
sg20
I00
sbsg1008
g0
(g722
g14
(lp1571
F0.297
aF0.298
aF0.298
aF0.313
atp1572
Rp1573
(dp1574
g11
I00
sg19
I01
sg20
I00
sbsg1052
g0
(g722
g14
(lp1575
F0.14
aF0.135
atp1576
Rp1577
(dp1578
g11
I00
sg19
I01
sg20
I00
sbsg1043
g0
(g33
g2
Ntp1579
Rp1580
(dp1581
g11
I00
sg19
I01
sg37
I00
sg20
I00
sbsg38
(lp1582
g982
ag986
ag990
ag994
ag1048
ag1003
ag1008
ag1052
ag1043
ag998
ag1049
ag1050
ag1051
asg1048
g0
(g341
g2
Ntp1583
Rp1584
(dp1585
g11
I00
sg19
I01
sg37
F0.0
sg20
I00
sbsg1049
g0
(g341
g2
Ntp1586
Rp1587
(dp1588
g11
I00
sg19
I01
sg37
F13.33
sg20
I00
sbsg1050
g0
(g103
g2
Ntp1589
Rp1590
(dp1591
g11
I00
sg19
I01
sg37
I301
sg20
I00
sbsg1051
g0
(g722
g14
(lp1592
F0.0
aF0.0
atp1593
Rp1594
(dp1595
g11
I00
sg19
I01
sg20
I00
sbsbsbsg676
g679
sS'GlobalTag'
p1596
g0
(g677
g2
Ntp1597
Rp1598
(dp1599
g38
(lp1600
S'DBParameters'
p1601
aS'connect'
p1602
aS'globaltag'
p1603
aS'RefreshEachRun'
p1604
aS'pfnPrefix'
p1605
aS'snapshotTime'
p1606
ag1071
aS'pfnPostfix'
p1607
aS'RefreshAlways'
p1608
aS'ReconnectEachRun'
p1609
aS'RefreshOpenIOVs'
p1610
aS'DumpStat'
p1611
asg11
I00
sg69
S'/cvmfs/cms.cern.ch/slc7_amd64_gcc700/cms/cmssw/CMSSW_10_4_0/python/CondCore/ESSources/CondDBESSource_cfi.py'
p1612
sg20
I01
sg1603
g0
(g164
g2
Ntp1613
Rp1614
(dp1615
g11
I00
sg19
I01
sg37
S'103X_upgrade2018_realistic_v8'
p1616
sg20
I00
sbsg1604
g0
(g33
g2
Ntp1617
Rp1618
(dp1619
g11
I00
sg19
I00
sg37
I00
sg20
I00
sbsg1605
g0
(g164
g2
Ntp1620
Rp1621
(dp1622
g11
I00
sg19
I00
sg37
g310
sg20
I00
sbsg1606
g0
(g164
g2
Ntp1623
Rp1624
(dp1625
g11
I00
sg19
I01
sg37
g310
sg20
I00
sbsg1071
g0
(g488
g14
(lp1626
tp1627
Rp1628
(dp1629
g11
I00
sg19
I01
sg20
I00
sg21
I1
sbsg1607
g0
(g164
g2
Ntp1630
Rp1631
(dp1632
g11
I00
sg19
I00
sg37
g310
sg20
I00
sbsg1601
g0
(g28
g2
Ntp1633
Rp1634
(dp1635
g11
I00
sg19
I01
sS'authenticationPath'
p1636
g0
(g164
g2
Ntp1637
Rp1638
(dp1639
g11
I00
sg19
I00
sg37
g310
sg20
I00
sbsg20
I00
sS'messageLevel'
p1640
g0
(g103
g2
Ntp1641
Rp1642
(dp1643
g11
I00
sg19
I00
sg37
I0
sg20
I00
sbsg38
(lp1644
g1640
aS'security'
p1645
aS'authenticationSystem'
p1646
ag1636
asg1645
g0
(g164
g2
Ntp1647
Rp1648
(dp1649
g11
I00
sg19
I00
sg37
g310
sg20
I00
sbsg1646
g0
(g103
g2
Ntp1650
Rp1651
(dp1652
g11
I00
sg19
I00
sg37
I0
sg20
I00
sbsbsg1608
g0
(g33
g2
Ntp1653
Rp1654
(dp1655
g11
I00
sg19
I00
sg37
I00
sg20
I00
sbsg40
I19
sg1602
g0
(g164
g2
Ntp1656
Rp1657
(dp1658
g11
I00
sg19
I01
sg37
S'frontier://FrontierProd/CMS_CONDITIONS'
p1659
sg20
I00
sbsg1609
g0
(g33
g2
Ntp1660
Rp1661
(dp1662
g11
I00
sg19
I00
sg37
I00
sg20
I00
sbsg271
g1596
sg1610
g0
(g33
g2
Ntp1663
Rp1664
(dp1665
g11
I00
sg19
I00
sg37
I00
sg20
I00
sbsg1611
g0
(g33
g2
Ntp1666
Rp1667
(dp1668
g11
I00
sg19
I00
sg37
I00
sg20
I00
sbsg46
S'PoolDBESSource'
p1669
sbsS'HcalTimeSlewEP'
p1670
g0
(g677
g2
Ntp1671
Rp1672
(dp1673
g38
(lp1674
S'timeSlewParametersM3'
p1675
aS'timeSlewParametersM2'
p1676
ag470
asg11
I00
sg1675
g0
(g488
g14
(lp1677
g0
(g28
g2
Ntp1678
Rp1679
(dp1680
g11
I00
sg19
I01
sS'tspar2'
p1681
g0
(g341
g2
Ntp1682
Rp1683
(dp1684
g11
I00
sg19
I01
sg37
F0.0
sg20
I00
sbsg20
I00
sS'tspar0'
p1685
g0
(g341
g2
Ntp1686
Rp1687
(dp1688
g11
I00
sg19
I01
sg37
F12.2999
sg20
I00
sbsS'tspar1'
p1689
g0
(g341
g2
Ntp1690
Rp1691
(dp1692
g11
I00
sg19
I01
sg37
F-2.19142
sg20
I00
sbsS'tspar1_siPM'
p1693
g0
(g341
g2
Ntp1694
Rp1695
(dp1696
g11
I00
sg19
I01
sg37
F0.0
sg20
I00
sbsS'cap'
p1697
g0
(g341
g2
Ntp1698
Rp1699
(dp1700
g11
I00
sg19
I01
sg37
F6.0
sg20
I00
sbsS'tspar0_siPM'
p1701
g0
(g341
g2
Ntp1702
Rp1703
(dp1704
g11
I00
sg19
I01
sg37
F0.0
sg20
I00
sbsg38
(lp1705
g1681
ag1685
ag1689
ag1693
ag1697
ag1701
aS'tspar2_siPM'
p1706
asg1706
g0
(g341
g2
Ntp1707
Rp1708
(dp1709
g11
I00
sg19
I01
sg37
F0.0
sg20
I00
sbsbag0
(g28
g2
Ntp1710
Rp1711
(dp1712
g11
I00
sg19
I01
sg1681
g0
(g341
g2
Ntp1713
Rp1714
(dp1715
g11
I00
sg19
I01
sg37
F32.0
sg20
I00
sbsg20
I00
sg1685
g0
(g341
g2
Ntp1716
Rp1717
(dp1718
g11
I00
sg19
I01
sg37
F15.5
sg20
I00
sbsg1689
g0
(g341
g2
Ntp1719
Rp1720
(dp1721
g11
I00
sg19
I01
sg37
F-3.2
sg20
I00
sbsg1693
g0
(g341
g2
Ntp1722
Rp1723
(dp1724
g11
I00
sg19
I01
sg37
F0.0
sg20
I00
sbsg1697
g0
(g341
g2
Ntp1725
Rp1726
(dp1727
g11
I00
sg19
I01
sg37
F6.0
sg20
I00
sbsg1701
g0
(g341
g2
Ntp1728
Rp1729
(dp1730
g11
I00
sg19
I01
sg37
F0.0
sg20
I00
sbsg38
(lp1731
g1681
ag1685
ag1689
ag1693
ag1697
ag1701
ag1706
asg1706
g0
(g341
g2
Ntp1732
Rp1733
(dp1734
g11
I00
sg19
I01
sg37
F0.0
sg20
I00
sbsbag0
(g28
g2
Ntp1735
Rp1736
(dp1737
g11
I00
sg19
I01
sg1681
g0
(g341
g2
Ntp1738
Rp1739
(dp1740
g11
I00
sg19
I01
sg37
F0.0
sg20
I00
sbsg20
I00
sg1685
g0
(g341
g2
Ntp1741
Rp1742
(dp1743
g11
I00
sg19
I01
sg37
F12.2999
sg20
I00
sbsg1689
g0
(g341
g2
Ntp1744
Rp1745
(dp1746
g11
I00
sg19
I01
sg37
F-2.19142
sg20
I00
sbsg1693
g0
(g341
g2
Ntp1747
Rp1748
(dp1749
g11
I00
sg19
I01
sg37
F0.0
sg20
I00
sbsg1697
g0
(g341
g2
Ntp1750
Rp1751
(dp1752
g11
I00
sg19
I01
sg37
F6.0
sg20
I00
sbsg1701
g0
(g341
g2
Ntp1753
Rp1754
(dp1755
g11
I00
sg19
I01
sg37
F0.0
sg20
I00
sbsg38
(lp1756
g1681
ag1685
ag1689
ag1693
ag1697
ag1701
ag1706
asg1706
g0
(g341
g2
Ntp1757
Rp1758
(dp1759
g11
I00
sg19
I01
sg37
F0.0
sg20
I00
sbsbag0
(g28
g2
Ntp1760
Rp1761
(dp1762
g11
I00
sg19
I01
sg1681
g0
(g341
g2
Ntp1763
Rp1764
(dp1765
g11
I00
sg19
I01
sg37
F0.0
sg20
I00
sbsg20
I00
sg1685
g0
(g341
g2
Ntp1766
Rp1767
(dp1768
g11
I00
sg19
I01
sg37
F12.2999
sg20
I00
sbsg1689
g0
(g341
g2
Ntp1769
Rp1770
(dp1771
g11
I00
sg19
I01
sg37
F-2.19142
sg20
I00
sbsg1693
g0
(g341
g2
Ntp1772
Rp1773
(dp1774
g11
I00
sg19
I01
sg37
F0.0
sg20
I00
sbsg1697
g0
(g341
g2
Ntp1775
Rp1776
(dp1777
g11
I00
sg19
I01
sg37
F6.0
sg20
I00
sbsg1701
g0
(g341
g2
Ntp1778
Rp1779
(dp1780
g11
I00
sg19
I01
sg37
F0.0
sg20
I00
sbsg38
(lp1781
g1681
ag1685
ag1689
ag1693
ag1697
ag1701
ag1706
asg1706
g0
(g341
g2
Ntp1782
Rp1783
(dp1784
g11
I00
sg19
I01
sg37
F0.0
sg20
I00
sbsbatp1785
Rp1786
(dp1787
g11
I00
sg19
I01
sg20
I00
sg21
I1
sbsg1676
g0
(g488
g14
(lp1788
g0
(g28
g2
Ntp1789
Rp1790
(dp1791
g11
I00
sg19
I01
sg20
I00
sS'slope'
p1792
g0
(g341
g2
Ntp1793
Rp1794
(dp1795
g11
I00
sg19
I01
sg37
F-3.178648
sg20
I00
sbsS'tmax'
p1796
g0
(g341
g2
Ntp1797
Rp1798
(dp1799
g11
I00
sg19
I01
sg37
F16.0
sg20
I00
sbsS'tzero'
p1800
g0
(g341
g2
Ntp1801
Rp1802
(dp1803
g11
I00
sg19
I01
sg37
F23.960177
sg20
I00
sbsg38
(lp1804
g1792
ag1796
ag1800
asbag0
(g28
g2
Ntp1805
Rp1806
(dp1807
g11
I00
sg19
I01
sg20
I00
sg1792
g0
(g341
g2
Ntp1808
Rp1809
(dp1810
g11
I00
sg19
I01
sg37
F-1.5610227
sg20
I00
sbsg1796
g0
(g341
g2
Ntp1811
Rp1812
(dp1813
g11
I00
sg19
I01
sg37
F10.0
sg20
I00
sbsg1800
g0
(g341
g2
Ntp1814
Rp1815
(dp1816
g11
I00
sg19
I01
sg37
F11.977461
sg20
I00
sbsg38
(lp1817
g1792
ag1796
ag1800
asbag0
(g28
g2
Ntp1818
Rp1819
(dp1820
g11
I00
sg19
I01
sg20
I00
sg1792
g0
(g341
g2
Ntp1821
Rp1822
(dp1823
g11
I00
sg19
I01
sg37
F-1.075824
sg20
I00
sbsg1796
g0
(g341
g2
Ntp1824
Rp1825
(dp1826
g11
I00
sg19
I01
sg37
F6.25
sg20
I00
sbsg1800
g0
(g341
g2
Ntp1827
Rp1828
(dp1829
g11
I00
sg19
I01
sg37
F9.109694
sg20
I00
sbsg38
(lp1830
g1792
ag1796
ag1800
asbatp1831
Rp1832
(dp1833
g11
I00
sg19
I01
sg20
I00
sg21
I1
sbsg20
I00
sg40
I23
sg69
S'/cvmfs/cms.cern.ch/slc7_amd64_gcc700/cms/cmssw/CMSSW_10_4_0/python/CalibCalorimetry/HcalPlugins/HcalTimeSlew_cff.py'
p1834
sg470
g0
(g164
g2
Ntp1835
Rp1836
(dp1837
g11
I00
sg19
I01
sg37
S'HBHE'
p1838
sg20
I00
sbsg271
g1670
sg46
g1670
sbssS'HcalAlignmentEP'
p1839
g0
(g254
g2
Ntp1840
Rp1841
(dp1842
g38
(lp1843
sg11
I00
sg20
I00
sg40
I53
sg69
g70
sg271
g1839
sg46
g1839
sbsS'EcalPreshowerGeometryFromDBEP'
p1844
g0
(g254
g2
Ntp1845
Rp1846
(dp1847
g38
(lp1848
g586
asg11
I00
sg20
I01
sg40
I53
sg69
g70
sg271
g1844
sg586
g0
(g33
g2
Ntp1849
Rp1850
(dp1851
g11
I00
sg19
I01
sg37
I01
sg20
I01
sbsg46
g1844
sbsS'CastorDbProducer'
p1852
g0
(g254
g2
Ntp1853
Rp1854
(dp1855
g38
(lp1856
g470
asg11
I00
sg470
g0
(g164
g2
Ntp1857
Rp1858
(dp1859
g11
I00
sg19
I01
sg37
g310
sg20
I00
sbsg20
I00
sg40
I53
sg69
g70
sg271
g1852
sg46
g1852
sbsS'hcalDDDRecConstants'
p1860
g0
(g254
g2
Ntp1861
Rp1862
(dp1863
g38
(lp1864
g470
asg11
I00
sg470
g0
(g164
g2
Ntp1865
Rp1866
(dp1867
g11
I00
sg19
I01
sg37
g310
sg20
I00
sbsg20
I00
sg40
I53
sg69
g70
sg271
g1860
sg46
S'HcalDDDRecConstantsESModule'
p1868
sbsg914
g916
sS'source'
p1869
g449
sS'CSCGeometryESModule'
p1870
g0
(g254
g2
Ntp1871
Rp1872
(dp1873
g38
(lp1874
g470
ag891
aS'debugV'
p1875
aS'useGangedStripsInME1a'
p1876
ag587
aS'useOnlyWiresInME1a'
p1877
aS'useRealWireGeometry'
p1878
aS'useCentreTIOffsets'
p1879
ag586
asg11
I00
sg470
g0
(g164
g2
Ntp1880
Rp1881
(dp1882
g11
I00
sg19
I01
sg37
g310
sg20
I00
sbsg20
I01
sg1875
g0
(g33
g2
Ntp1883
Rp1884
(dp1885
g11
I00
sg19
I00
sg37
I00
sg20
I00
sbsg69
g70
sg1876
g0
(g33
g2
Ntp1886
Rp1887
(dp1888
g11
I00
sg19
I01
sg37
I00
sg20
I01
sbsg587
g0
(g164
g2
Ntp1889
Rp1890
(dp1891
g11
I00
sg19
I01
sg37
g310
sg20
I00
sbsg1877
g0
(g33
g2
Ntp1892
Rp1893
(dp1894
g11
I00
sg19
I01
sg37
I00
sg20
I00
sbsg891
g0
(g33
g2
Ntp1895
Rp1896
(dp1897
g11
I00
sg19
I01
sg37
I00
sg20
I00
sbsg40
I53
sg1879
g0
(g33
g2
Ntp1898
Rp1899
(dp1900
g11
I00
sg19
I01
sg37
I00
sg20
I00
sbsg271
g1870
sg1878
g0
(g33
g2
Ntp1901
Rp1902
(dp1903
g11
I00
sg19
I01
sg37
I01
sg20
I00
sbsg586
g0
(g33
g2
Ntp1904
Rp1905
(dp1906
g11
I00
sg19
I01
sg37
I01
sg20
I00
sbsg46
g1870
sbsS'MuonDetLayerGeometryESProducer'
p1907
g0
(g254
g2
Ntp1908
Rp1909
(dp1910
g38
(lp1911
sg11
I00
sg20
I00
sg40
I53
sg69
g70
sg271
g1907
sg46
g1907
sbsS'EcalBarrelGeometryFromDBEP'
p1912
g0
(g254
g2
Ntp1913
Rp1914
(dp1915
g38
(lp1916
g586
asg11
I00
sg20
I01
sg40
I53
sg69
g70
sg271
g1912
sg586
g0
(g33
g2
Ntp1917
Rp1918
(dp1919
g11
I00
sg19
I01
sg37
I01
sg20
I01
sbsg46
g1912
sbsS'_Process__vpsets'
p1920
(dp1921
sS'EcalElectronicsMappingBuilder'
p1922
g0
(g254
g2
Ntp1923
Rp1924
(dp1925
g38
(lp1926
sg11
I00
sg20
I00
sg40
I53
sg69
g70
sg271
g1922
sg46
g1922
sbsS'_Process__name'
p1927
S'ana'
p1928
sS'sistripconn'
p1929
g0
(g254
g2
Ntp1930
Rp1931
(dp1932
g38
(lp1933
sg11
I00
sg20
I00
sg40
I53
sg69
g70
sg271
g1929
sg46
S'SiStripConnectivity'
p1934
sbsg1670
g1672
sS'EcalTrigTowerConstituentsMapBuilder'
p1935
g0
(g254
g2
Ntp1936
Rp1937
(dp1938
g38
(lp1939
S'MapFile'
p1940
asg11
I00
sg20
I00
sg1940
g0
(g164
g2
Ntp1941
Rp1942
(dp1943
g11
I00
sg19
I00
sg37
S'Geometry/EcalMapping/data/EndCap_TTMap.txt'
p1944
sg20
I00
sbsg69
g70
sg40
I53
sg271
g1935
sg46
g1935
sbsS'trackerNumberingGeometryDB'
p1945
g0
(g254
g2
Ntp1946
Rp1947
(dp1948
g38
(lp1949
g470
ag585
asg11
I00
sg470
g0
(g164
g2
Ntp1950
Rp1951
(dp1952
g11
I00
sg19
I01
sg37
g310
sg20
I00
sbsg20
I00
sg40
I53
sg69
g70
sg271
g1945
sg585
g0
(g33
g2
Ntp1953
Rp1954
(dp1955
g11
I00
sg19
I01
sg37
I00
sg20
I00
sbsg46
S'TrackerGeometricDetESModule'
p1956
sbsS'idealForDigiCSCGeometry'
p1957
g0
(g254
g2
Ntp1958
Rp1959
(dp1960
g38
(lp1961
g470
ag891
ag1875
ag1876
ag587
ag1877
ag1878
ag1879
ag586
asg11
I00
sg470
g0
(g164
g2
Ntp1962
Rp1963
(dp1964
g11
I00
sg19
I01
sg37
S'idealForDigi'
p1965
sg20
I01
sbsg20
I01
sg1875
g0
(g33
g2
Ntp1966
Rp1967
(dp1968
g11
I00
sg19
I00
sg37
I00
sg20
I00
sbsg69
S'/cvmfs/cms.cern.ch/slc7_amd64_gcc700/cms/cmssw/CMSSW_10_4_0/python/Geometry/CSCGeometryBuilder/idealForDigiCscGeometryDB_cff.py'
p1969
sg1876
g0
(g33
g2
Ntp1970
Rp1971
(dp1972
g11
I00
sg19
I01
sg37
I00
sg20
I01
sbsg587
g0
(g164
g2
Ntp1973
Rp1974
(dp1975
g11
I00
sg19
I01
sg37
S'fakeForIdeal'
p1976
sg20
I01
sbsg1877
g0
(g33
g2
Ntp1977
Rp1978
(dp1979
g11
I00
sg19
I01
sg37
I00
sg20
I00
sbsg891
g0
(g33
g2
Ntp1980
Rp1981
(dp1982
g11
I00
sg19
I01
sg37
I00
sg20
I00
sbsg40
I8
sg1879
g0
(g33
g2
Ntp1983
Rp1984
(dp1985
g11
I00
sg19
I01
sg37
I00
sg20
I00
sbsg271
g1957
sg1878
g0
(g33
g2
Ntp1986
Rp1987
(dp1988
g11
I00
sg19
I01
sg37
I01
sg20
I00
sbsg586
g0
(g33
g2
Ntp1989
Rp1990
(dp1991
g11
I00
sg19
I01
sg37
I00
sg20
I01
sbsg46
g1870
sbsS'CaloTowerGeometryFromDBEP'
p1992
g0
(g254
g2
Ntp1993
Rp1994
(dp1995
g38
(lp1996
g586
asg11
I00
sg20
I00
sg40
I53
sg69
g70
sg271
g1992
sg586
g0
(g33
g2
Ntp1997
Rp1998
(dp1999
g11
I00
sg19
I01
sg37
I00
sg20
I00
sbsg46
g1992
sbsS'_Process__subProcesses'
p2000
(lp2001
sS'_cloneToObjectDict'
p2002
(dp2003
I140317773034320
g0
(g254
g2
Ntp2004
Rp2005
(dp2006
g38
(lp2007
S'PreFilter'
p2008
ag607
aS'NSigmaInside'
p2009
asg11
I00
sg20
I00
sg69
g70
sg607
g0
(g164
g2
Ntp2010
Rp2011
(dp2012
g11
I00
sg19
I01
sg37
S'StandardMatcher'
p2013
sg20
I00
sbsg2008
g0
(g33
g2
Ntp2014
Rp2015
(dp2016
g11
I00
sg19
I01
sg37
I00
sg20
I00
sbsg40
I53
sg2009
g0
(g341
g2
Ntp2017
Rp2018
(dp2019
g11
I00
sg19
I01
sg37
F3.0
sg20
I00
sbsg271
S'SiStripRecHitMatcherESProducer'
p2020
sg46
g2020
sbsI140317773399120
g1672
sI140317773306064
g0
(g254
g2
Ntp2021
Rp2022
(dp2023
g38
(lp2024
g586
asg11
I00
sg20
I00
sg40
I53
sg69
g70
sg271
S'ZdcGeometryFromDBEP'
p2025
sg586
g0
(g33
g2
Ntp2026
Rp2027
(dp2028
g11
I00
sg19
I01
sg37
I00
sg20
I00
sbsg46
g2025
sbsI140317773256208
g1947
sI140317773257232
g1909
sI140317773258064
g256
sI140317773255824
g582
sI140317773034704
g916
sI140317773317392
g0
(g254
g2
Ntp2029
Rp2030
(dp2031
g38
(lp2032
g470
asg11
I00
sg470
g0
(g164
g2
Ntp2033
Rp2034
(dp2035
g11
I00
sg19
I01
sg37
g1976
sg20
I01
sbsg20
I01
sg40
I5
sg69
S'/cvmfs/cms.cern.ch/slc7_amd64_gcc700/cms/cmssw/CMSSW_10_4_0/python/Alignment/CommonAlignmentProducer/fakeForIdealAlignmentProducer_cfi.py'
p2036
sg271
S'fakeForIdealAlignment'
p2037
sg46
S'FakeAlignmentProducer'
p2038
sbsI140317773257616
g709
sI140317773034896
g925
sI140317772977616
g0
(g254
g2
Ntp2039
Rp2040
(dp2041
g38
(lp2042
S'printDebug'
p2043
ag470
aS'APVGain'
p2044
aS'AutomaticNormalization'
p2045
asg11
I00
sg470
g0
(g164
g2
Ntp2046
Rp2047
(dp2048
g11
I00
sg19
I01
sg37
g310
sg20
I00
sbsg20
I00
sg2045
g0
(g33
g2
Ntp2049
Rp2050
(dp2051
g11
I00
sg19
I01
sg37
I00
sg20
I00
sbsg40
I53
sg2043
g0
(g33
g2
Ntp2052
Rp2053
(dp2054
g11
I00
sg19
I00
sg37
I00
sg20
I00
sbsg69
g70
sg2044
g0
(g488
g14
(lp2055
g0
(g28
g2
Ntp2056
Rp2057
(dp2058
g11
I00
sg19
I01
sg20
I00
sS'Label'
p2059
g0
(g164
g2
Ntp2060
Rp2061
(dp2062
g11
I00
sg19
I00
sg37
g310
sg20
I00
sbsS'Record'
p2063
g0
(g164
g2
Ntp2064
Rp2065
(dp2066
g11
I00
sg19
I01
sg37
S'SiStripApvGainRcd'
p2067
sg20
I00
sbsS'NormalizationFactor'
p2068
g0
(g341
g2
Ntp2069
Rp2070
(dp2071
g11
I00
sg19
I00
sg37
F1.0
sg20
I00
sbsg38
(lp2072
g2063
ag2068
ag2059
asbag0
(g28
g2
Ntp2073
Rp2074
(dp2075
g11
I00
sg19
I01
sg20
I00
sg2059
g0
(g164
g2
Ntp2076
Rp2077
(dp2078
g11
I00
sg19
I00
sg37
g310
sg20
I00
sbsg2063
g0
(g164
g2
Ntp2079
Rp2080
(dp2081
g11
I00
sg19
I01
sg37
S'SiStripApvGain2Rcd'
p2082
sg20
I00
sbsg2068
g0
(g341
g2
Ntp2083
Rp2084
(dp2085
g11
I00
sg19
I00
sg37
F1.0
sg20
I00
sbsg38
(lp2086
g2063
ag2068
ag2059
asbatp2087
Rp2088
(dp2089
g11
I00
sg19
I01
sg20
I00
sg21
I1
sbsg271
S'siStripGainESProducer'
p2090
sg46
S'SiStripGainESProducer'
p2091
sbsI140317773317648
g1959
sI140317773035088
g0
(g254
g2
Ntp2092
Rp2093
(dp2094
g38
(lp2095
g475
asg11
I00
sg20
I01
sg40
I53
sg69
g70
sg475
g0
(g488
g14
(lp2096
g0
(g28
g2
Ntp2097
Rp2098
(dp2099
g11
I00
sg19
I01
sg20
I00
sg416
g0
(g164
g2
Ntp2100
Rp2101
(dp2102
g11
I00
sg19
I01
sg37
S'SiPixelQualityFromDbRcd'
p2103
sg20
I00
sbsg497
g0
(g164
g2
Ntp2104
Rp2105
(dp2106
g11
I00
sg19
I01
sg37
g310
sg20
I00
sbsg38
(lp2107
g416
ag497
asbag0
(g28
g2
Ntp2108
Rp2109
(dp2110
g11
I00
sg19
I01
sg20
I00
sg416
g0
(g164
g2
Ntp2111
Rp2112
(dp2113
g11
I00
sg19
I01
sg37
S'SiPixelDetVOffRcd'
p2114
sg20
I00
sbsg497
g0
(g164
g2
Ntp2115
Rp2116
(dp2117
g11
I00
sg19
I01
sg37
g310
sg20
I00
sbsg38
(lp2118
g416
ag497
asbatp2119
Rp2120
(dp2121
g11
I00
sg19
I01
sg20
I00
sg21
I1
sbsg271
S'siPixelQualityESProducer'
p2122
sg46
S'SiPixelQualityESProducer'
p2123
sbsI140317773100688
g0
(cFWCore.ParameterSet.SequenceTypes
EndPath
p2124
g2
Ntp2125
Rp2126
(dp2127
g11
I00
sg279
g0
(g280
g2
Ntp2128
Rp2129
(dp2130
g284
(lp2131
g277
asbsg271
S'gRR'
p2132
sg20
I00
sg392
g0
(g393
g2
Ntp2133
Rp2134
(dp2135
g397
(dp2136
sg399
(lp2137
Nag2137
ag2137
asbsbsI140317773305552
g0
(g254
g2
Ntp2138
Rp2139
(dp2140
g38
(lp2141
sg11
I00
sg20
I00
sg40
I53
sg69
g70
sg271
S'CaloTowerTopologyEP'
p2142
sg46
g2142
sbsI140317773399824
g719
sI140317773399888
g930
sI140317773256656
g745
sI140317773256848
g714
sI140317773256912
g0
(g254
g2
Ntp2143
Rp2144
(dp2145
g38
(lp2146
sg11
I00
sg20
I00
sg40
I53
sg69
g70
sg271
S'TrackerRecoGeometryESProducer'
p2147
sg46
g2147
sbsI140317773318480
g0
(g254
g2
Ntp2148
Rp2149
(dp2150
g38
(lp2151
g470
ag585
ag586
ag587
asg11
I00
sg470
g0
(g164
g2
Ntp2152
Rp2153
(dp2154
g11
I00
sg19
I01
sg37
g1965
sg20
I01
sbsg20
I01
sg587
g0
(g164
g2
Ntp2155
Rp2156
(dp2157
g11
I00
sg19
I01
sg37
g1976
sg20
I01
sbsg69
S'/cvmfs/cms.cern.ch/slc7_amd64_gcc700/cms/cmssw/CMSSW_10_4_0/python/Geometry/DTGeometryBuilder/idealForDigiDtGeometryDB_cff.py'
p2158
sg40
I8
sg271
S'idealForDigiDTGeometry'
p2159
sg585
g0
(g33
g2
Ntp2160
Rp2161
(dp2162
g11
I00
sg19
I01
sg37
I00
sg20
I00
sbsg586
g0
(g33
g2
Ntp2163
Rp2164
(dp2165
g11
I00
sg19
I01
sg37
I00
sg20
I01
sbsg46
g580
sbsI140317773034448
g1931
sI140317773306384
g701
sI140317772979536
g763
sI140317773036240
g467
sI140317773459152
g0
(cFWCore.ParameterSet.Modules
ESPrefer
p2166
g2
Ntp2167
Rp2168
(dp2169
g38
(lp2170
sg11
I00
sg20
I00
sS'_targetLabel'
p2171
g957
sg40
I89
sg69
g70
sg271
S'es_prefer_hcalHardcode'
p2172
sg46
g1174
sbsI140317773306704
g1937
sI140317773100496
g0
(g2124
g2
Ntp2173
Rp2174
(dp2175
g11
I00
sg279
g0
(g280
g2
Ntp2176
Rp2177
(dp2178
g284
(lp2179
g781
asbsg271
S'EDA'
p2180
sg20
I00
sg392
g0
(g393
g2
Ntp2181
Rp2182
(dp2183
g397
(dp2184
sg399
(lp2185
Nag2185
ag2185
asbsbsI140317772979216
g403
sI140317773319248
g888
sI140317773457936
g959
sI140317773319312
g577
sI140317773307152
g1924
sI140317773304656
g1994
sI140317773305168
g897
sI140317772979664
g603
sI140317773307408
g679
sI140317772978512
g849
sI140317773258448
g0
(g254
g2
Ntp2186
Rp2187
(dp2188
g38
(lp2189
g586
asg11
I00
sg20
I01
sg40
I53
sg69
g70
sg271
S'EcalEndcapGeometryFromDBEP'
p2190
sg586
g0
(g33
g2
Ntp2191
Rp2192
(dp2193
g11
I00
sg19
I01
sg37
I01
sg20
I01
sbsg46
g2190
sbsI140317773459216
g1854
sI140317773258576
g1846
sI140317773254992
g1872
sI140317773060816
g781
sI140317773258704
g1914
sI140317773061648
g277
sI140317773257040
g0
(g254
g2
Ntp2194
Rp2195
(dp2196
g38
(lp2197
g470
asg11
I00
sg470
g0
(g164
g2
Ntp2198
Rp2199
(dp2200
g11
I00
sg19
I01
sg37
g310
sg20
I00
sbsg20
I00
sg40
I53
sg69
g70
sg271
S'trackerTopology'
p2201
sg46
S'TrackerTopologyEP'
p2202
sbsI140317773316176
g0
(g254
g2
Ntp2203
Rp2204
(dp2205
g38
(lp2206
g470
asg11
I00
sg470
g0
(g164
g2
Ntp2207
Rp2208
(dp2209
g11
I00
sg19
I01
sg37
g310
sg20
I00
sbsg20
I00
sg40
I53
sg69
g70
sg271
S'hcalDDDSimConstants'
p2210
sg46
S'HcalDDDSimConstantsESModule'
p2211
sbsI140317773304272
g0
(g254
g2
Ntp2212
Rp2213
(dp2214
g38
(lp2215
g586
asg11
I00
sg20
I01
sg40
I53
sg69
g70
sg271
S'HcalGeometryFromDBEP'
p2216
sg586
g0
(g33
g2
Ntp2217
Rp2218
(dp2219
g11
I00
sg19
I01
sg37
I01
sg20
I01
sbsg46
g2216
sbsI140317773099280
g288
sI140317773316496
g1862
sI140317773304336
g1841
sI140317782270416
g947
sI140317773255184
g0
(g254
g2
Ntp2220
Rp2221
(dp2222
g38
(lp2223
g891
aS'compatibiltyWith11'
p2224
asg11
I00
sg20
I00
sg40
I53
sg69
g70
sg891
g0
(g33
g2
Ntp2225
Rp2226
(dp2227
g11
I00
sg19
I00
sg37
I00
sg20
I00
sbsg2224
g0
(g33
g2
Ntp2228
Rp2229
(dp2230
g11
I00
sg19
I00
sg37
I01
sg20
I00
sbsg271
S'RPCGeometryESModule'
p2231
sg46
g2231
sbsI140317773316688
g0
(g254
g2
Ntp2232
Rp2233
(dp2234
g38
(lp2235
g470
ag585
ag586
ag587
asg11
I00
sg470
g0
(g164
g2
Ntp2236
Rp2237
(dp2238
g11
I00
sg19
I01
sg37
g1965
sg20
I01
sbsg20
I01
sg587
g0
(g164
g2
Ntp2239
Rp2240
(dp2241
g11
I00
sg19
I01
sg37
g1976
sg20
I01
sbsg69
S'/cvmfs/cms.cern.ch/slc7_amd64_gcc700/cms/cmssw/CMSSW_10_4_0/python/Geometry/TrackerGeometryBuilder/idealForDigiTrackerGeometryDB_cff.py'
p2242
sg40
I8
sg271
S'idealForDigiTrackerGeometry'
p2243
sg585
g0
(g33
g2
Ntp2244
Rp2245
(dp2246
g11
I00
sg19
I01
sg37
I00
sg20
I00
sbsg586
g0
(g33
g2
Ntp2247
Rp2248
(dp2249
g11
I00
sg19
I01
sg37
I00
sg20
I01
sbsg46
g760
sbsI140317773366032
g1598
ssg2142
g2139
sg2090
g2040
sg2216
g2213
sg2231
g2221
sg2159
g2149
sg2210
g2204
sS'_Process__esprefers'
p2250
(dp2251
g2172
g2168
ssg2025
g2022
sS'_Process__schedule'
p2252
g0
(cFWCore.ParameterSet.SequenceTypes
Schedule
p2253
g14
(lp2254
g2126
ag2174
atp2255
Rp2256
(dp2257
g11
I00
sg19
I01
sg20
I00
sg392
g0
(g393
g2
Ntp2258
Rp2259
(dp2260
g397
(dp2261
sg399
(lp2262
Nag2262
ag2262
asbsbsg2190
g2187
sg945
g947
sS'_Process__outputmodules'
p2263
(dp2264
sS'_Process__analyzers'
p2265
(dp2266
g778
g781
ssS'_Process__InExtendCall'
p2267
I00
sg380
g288
sg2172
g2168
sg2020
g2005
sg2243
g2233
sS'_Process__modifiers'
p2268
(g0
(cFWCore.ParameterSet.Config
ModifierChain
p2269
g2
Ntp2270
Rp2271
(dp2272
S'_ModifierChain__chosen'
p2273
I01
sS'_ModifierChain__chain'
p2274
(g0
(g2269
g2
Ntp2275
Rp2276
(dp2277
g2273
I01
sg2274
(g0
(g2269
g2
Ntp2278
Rp2279
(dp2280
g2273
I01
sg2274
(g0
(cFWCore.ParameterSet.Config
Modifier
p2281
g2
Ntp2282
Rp2283
(dp2284
S'_Modifier__chosen'
p2285
I01
sS'_Modifier__processModifiers'
p2286
(lp2287
sbg0
(g2281
g2
Ntp2288
Rp2289
(dp2290
g2285
I01
sg2286
(lp2291
sbg0
(g2281
g2
Ntp2292
Rp2293
(dp2294
g2285
I01
sg2286
(lp2295
sbg0
(g2281
g2
Ntp2296
Rp2297
(dp2298
g2285
I01
sg2286
(lp2299
sbtp2300
sbg0
(g2281
g2
Ntp2301
Rp2302
(dp2303
g2285
I01
sg2286
(lp2304
sbg0
(g2281
g2
Ntp2305
Rp2306
(dp2307
g2285
I01
sg2286
(lp2308
sbg0
(g2281
g2
Ntp2309
Rp2310
(dp2311
g2285
I01
sg2286
(lp2312
sbg0
(g2281
g2
Ntp2313
Rp2314
(dp2315
g2285
I01
sg2286
(lp2316
sbg0
(g2281
g2
Ntp2317
Rp2318
(dp2319
g2285
I01
sg2286
(lp2320
sbg0
(g2281
g2
Ntp2321
Rp2322
(dp2323
g2285
I01
sg2286
(lp2324
sbg0
(g2281
g2
Ntp2325
Rp2326
(dp2327
g2285
I01
sg2286
(lp2328
sbg0
(g2281
g2
Ntp2329
Rp2330
(dp2331
g2285
I01
sg2286
(lp2332
sbtp2333
sbg0
(g2281
g2
Ntp2334
Rp2335
(dp2336
g2285
I01
sg2286
(lp2337
sbg0
(g2281
g2
Ntp2338
Rp2339
(dp2340
g2285
I01
sg2286
(lp2341
sbg0
(g2281
g2
Ntp2342
Rp2343
(dp2344
g2285
I01
sg2286
(lp2345
sbg0
(g2281
g2
Ntp2346
Rp2347
(dp2348
g2285
I01
sg2286
(lp2349
sbg0
(g2281
g2
Ntp2350
Rp2351
(dp2352
g2285
I01
sg2286
(lp2353
sbtp2354
sbtp2355
sS'_Process__producers'
p2356
(dp2357
g380
g288
ssg2180
g2174
sg2132
g2126
sg2122
g2093
sg1596
g1598
sg274
g277
sS'_Process__filters'
p2358
(dp2359
sg957
g959
sS'_Process__looper'
p2360
NsS'schedule'
p2361
g2256
sS'_Process__endpaths'
p2362
g0
(cFWCore.ParameterSet.DictTypes
SortedKeysDict
p2363
c__builtin__
dict
p2364
(dp2365
g2180
g2174
sg2132
g2126
stp2366
Rp2367
(dp2368
S'list'
p2369
(lp2370
g2180
ag2132
asbsS'_Process__esproducers'
p2371
(dp2372
g253
g256
sg575
g577
sg2147
g2144
sg601
g603
sg699
g701
sg707
g709
sg712
g714
sg743
g745
sg847
g849
sg886
g888
sg895
g897
sg1839
g1841
sg1844
g1846
sg1852
g1854
sg1860
g1862
sg1870
g1872
sg1912
g1914
sg1945
g1947
sg1922
g1924
sg1935
g1937
sg1957
g1959
sg1992
g1994
sg401
g403
sg928
g930
sg2090
g2040
sg2020
g2005
sg2231
g2221
sg2159
g2149
sg2025
g2022
sg580
g582
sg465
g467
sg1929
g1931
sg2243
g2233
sg2142
g2139
sg2122
g2093
sg761
g763
sg2210
g2204
sg1907
g1909
sg2201
g2195
sg2190
g2187
sg2037
g2030
sg2216
g2213
ssS'_Process__tasks'
p2373
(dp2374
sS'_Process__paths'
p2375
g0
(g2363
g2364
(dp2376
tp2377
Rp2378
(dp2379
g2369
(lp2380
sbsg2201
g2195
sg2147
g2144
sS'_Process__partialschedules'
p2381
(dp2382
sg2037
g2030
sg923
g925
sS'_Process__isStrict'
p2383
I00
sb.