(dp1
S'OriginalConfig'
p2
ccopy_reg
_reconstructor
p3
(cWMCore.Configuration
Configuration
p4
c__builtin__
object
p5
NtRp6
(dp7
S'Site'
p8
g3
(cWMCore.Configuration
ConfigSection
p9
g5
NtRp10
(dp11
S'_internal_skipChecks'
p12
I00
sS'_internal_documentation'
p13
S''
sS'_internal_settings'
p14
c__builtin__
set
p15
((lp16
S'storageSite'
p17
atRp18
sS'_internal_name'
p19
g8
sS'_internal_docstrings'
p20
(dp21
sS'_internal_children'
p22
g15
((ltRp23
sg17
S'T2_FI_HIP'
p24
sS'_internal_parent_ref'
p25
NsbsS'_internal_sections'
p26
(lp27
S'General'
p28
aS'JobType'
p29
aS'Data'
p30
ag8
asg28
g3
(g9
g5
NtRp31
(dp32
g12
I00
sg13
S''
sg14
g15
((lp33
S'transferOutputs'
p34
aS'requestName'
p35
atRp36
sg19
g28
sg20
(dp37
sg34
I01
sg22
g15
((ltRp38
sg35
S'step3_gamma_20k'
p39
sg25
NsbsS'_internal_webapps'
p40
(lp41
sS'_internal_components'
p42
(lp43
sg30
g3
(g9
g5
NtRp44
(dp45
S'inputDataset'
p46
S'/SingleGamma/mmyllyma-step2_gamma_20k-429973859737a67eb10c1a53af2256fc/USER'
p47
sS'outputDatasetTag'
p48
g39
sS'publishDBS'
p49
S'https://cmsweb.cern.ch/dbs/prod/phys03/DBSWriter/'
p50
sg12
I00
sS'splitting'
p51
S'FileBased'
p52
sS'unitsPerJob'
p53
I1
sg13
S''
sg14
g15
((lp54
g46
ag48
ag49
aS'totalUnits'
p55
ag53
aS'inputDBS'
p56
ag51
aS'outLFNDirBase'
p57
aS'publication'
p58
atRp59
sg19
g30
sg56
S'phys03'
p60
sg20
(dp61
sg22
g15
((ltRp62
sg58
I01
sg57
S'/store/user/mmyllyma/CRAB3_TransferData'
p63
sg25
Nsg55
I20
sbsg29
g3
(g9
g5
NtRp64
(dp65
S'outputFiles'
p66
(lp67
S'step3_gamma_20k.root'
p68
asg12
I00
sg13
S''
sg14
g15
((lp69
S'psetName'
p70
aS'pluginName'
p71
ag66
aS'allowUndistributedCMSSW'
p72
aS'maxMemoryMB'
p73
atRp74
sg19
g29
sg20
(dp75
sg71
S'Analysis'
p76
sg22
g15
((ltRp77
sg72
I01
sg70
S'step3_gamma_20k.py'
p78
sg25
Nsg73
I2500
sbsbsS'voGroup'
p79
S''
sS'Server'
p80
S'cmsweb-k8s-prod.cern.ch'
p81
sS'instance'
p82
S'prod'
p83
sS'RequestName'
p84
V210204_191540:mmyllyma_crab_step3_gamma_20k
p85
sS'voRole'
p86
S'NULL'
p87
sS'Port'
p88
S''
s.